
nand_flash.elf:     file format elf32-littlearm


Disassembly of section .text:

30000000 <__code_start>:
30000000:	ea000033 	b	300000d4 <reset>
30000004:	e59ff014 	ldr	pc, [pc, #20]	; 30000020 <vector_base_udef_excp>
30000008:	e59ff014 	ldr	pc, [pc, #20]	; 30000024 <vector_base_SWI_excp>
3000000c:	ea000056 	b	3000016c <halt>
30000010:	ea000055 	b	3000016c <halt>
30000014:	ea000054 	b	3000016c <halt>
30000018:	e59ff008 	ldr	pc, [pc, #8]	; 30000028 <vector_base_IRQ>
3000001c:	ea000052 	b	3000016c <halt>

30000020 <vector_base_udef_excp>:
30000020:	3000002c 	andcc	r0, r0, ip, lsr #32

30000024 <vector_base_SWI_excp>:
30000024:	30000070 	andcc	r0, r0, r0, ror r0

30000028 <vector_base_IRQ>:
30000028:	300000c0 	andcc	r0, r0, r0, asr #1

3000002c <udef_excp>:
3000002c:	e3a0d30d 	mov	sp, #872415232	; 0x34000000
30000030:	e92d5fff 	push	{r0, r1, r2, r3, r4, r5, r6, r7, r8, r9, sl, fp, ip, lr}
30000034:	e10f0000 	mrs	r0, CPSR
30000038:	e59f1130 	ldr	r1, [pc, #304]	; 30000170 <halt+0x4>
3000003c:	eb00042d 	bl	300010f8 <printException>
30000040:	e8fd9fff 	ldm	sp!, {r0, r1, r2, r3, r4, r5, r6, r7, r8, r9, sl, fp, ip, pc}^

30000044 <udef_excp_string>:
30000044:	65646e55 	strbvs	r6, [r4, #-3669]!	; 0xfffff1ab
30000048:	656e6966 	strbvs	r6, [lr, #-2406]!	; 0xfffff69a
3000004c:	6e492064 	cdpvs	0, 4, cr2, cr9, cr4, {3}
30000050:	75727473 	ldrbvc	r7, [r2, #-1139]!	; 0xfffffb8d
30000054:	6f697463 	svcvs	0x00697463
30000058:	7845206e 	stmdavc	r5, {r1, r2, r3, r5, r6, sp}^
3000005c:	74706563 	ldrbtvc	r6, [r0], #-1379	; 0xfffffa9d
30000060:	206e6f69 	rsbcs	r6, lr, r9, ror #30
30000064:	7563634f 	strbvc	r6, [r3, #-847]!	; 0xfffffcb1
30000068:	64657272 	strbtvs	r7, [r5], #-626	; 0xfffffd8e
3000006c:	00000000 	andeq	r0, r0, r0

30000070 <SWI_excp>:
30000070:	e59fd0fc 	ldr	sp, [pc, #252]	; 30000174 <halt+0x8>
30000074:	e92d5fff 	push	{r0, r1, r2, r3, r4, r5, r6, r7, r8, r9, sl, fp, ip, lr}
30000078:	e1a0400e 	mov	r4, lr
3000007c:	e10f0000 	mrs	r0, CPSR
30000080:	e59f10f0 	ldr	r1, [pc, #240]	; 30000178 <halt+0xc>
30000084:	eb00041b 	bl	300010f8 <printException>
30000088:	e2440004 	sub	r0, r4, #4
3000008c:	eb000424 	bl	30001124 <printSWIval>
30000090:	e8fd9fff 	ldm	sp!, {r0, r1, r2, r3, r4, r5, r6, r7, r8, r9, sl, fp, ip, pc}^

30000094 <SWI_excp_string>:
30000094:	74666f53 	strbtvc	r6, [r6], #-3923	; 0xfffff0ad
30000098:	65726177 	ldrbvs	r6, [r2, #-375]!	; 0xfffffe89
3000009c:	746e4920 	strbtvc	r4, [lr], #-2336	; 0xfffff6e0
300000a0:	75727265 	ldrbvc	r7, [r2, #-613]!	; 0xfffffd9b
300000a4:	45207470 	strmi	r7, [r0, #-1136]!	; 0xfffffb90
300000a8:	70656378 	rsbvc	r6, r5, r8, ror r3
300000ac:	6e6f6974 			; <UNDEFINED> instruction: 0x6e6f6974
300000b0:	63634f20 	cmnvs	r3, #32, 30	; 0x80
300000b4:	65727275 	ldrbvs	r7, [r2, #-629]!	; 0xfffffd8b
300000b8:	00000064 	andeq	r0, r0, r4, rrx
300000bc:	e1a00000 	nop			; (mov r0, r0)

300000c0 <IRQ_handler>:
300000c0:	e59fd0b4 	ldr	sp, [pc, #180]	; 3000017c <halt+0x10>
300000c4:	e24ee004 	sub	lr, lr, #4
300000c8:	e92d5fff 	push	{r0, r1, r2, r3, r4, r5, r6, r7, r8, r9, sl, fp, ip, lr}
300000cc:	eb0003fb 	bl	300010c0 <IRQ_handler_c>
300000d0:	e8fd9fff 	ldm	sp!, {r0, r1, r2, r3, r4, r5, r6, r7, r8, r9, sl, fp, ip, pc}^

300000d4 <reset>:
300000d4:	e3a00453 	mov	r0, #1392508928	; 0x53000000
300000d8:	e3a01000 	mov	r1, #0
300000dc:	e5801000 	str	r1, [r0]
300000e0:	e3a00313 	mov	r0, #1275068416	; 0x4c000000
300000e4:	e3e01000 	mvn	r1, #0
300000e8:	e5801000 	str	r1, [r0]
300000ec:	e59f008c 	ldr	r0, [pc, #140]	; 30000180 <halt+0x14>
300000f0:	e3a01005 	mov	r1, #5
300000f4:	e5801000 	str	r1, [r0]
300000f8:	ee110f10 	mrc	15, 0, r0, cr1, cr0, {0}
300000fc:	e3800103 	orr	r0, r0, #-1073741824	; 0xc0000000
30000100:	ee010f10 	mcr	15, 0, r0, cr1, cr0, {0}
30000104:	e59f0078 	ldr	r0, [pc, #120]	; 30000184 <halt+0x18>
30000108:	e59f1078 	ldr	r1, [pc, #120]	; 30000188 <halt+0x1c>
3000010c:	e5801000 	str	r1, [r0]
30000110:	e3a01000 	mov	r1, #0
30000114:	e5910000 	ldr	r0, [r1]
30000118:	e5811000 	str	r1, [r1]
3000011c:	e5912000 	ldr	r2, [r1]
30000120:	e1510002 	cmp	r1, r2
30000124:	e59fd060 	ldr	sp, [pc, #96]	; 3000018c <halt+0x20>
30000128:	03a0da01 	moveq	sp, #4096	; 0x1000
3000012c:	05810000 	streq	r0, [r1]
30000130:	eb000019 	bl	3000019c <SDRAM_init>
30000134:	eb000037 	bl	30000218 <copy2sdram>
30000138:	eb000056 	bl	30000298 <clean_reset_bss>
3000013c:	e10f0000 	mrs	r0, CPSR
30000140:	e3c0000f 	bic	r0, r0, #15
30000144:	e3c00080 	bic	r0, r0, #128	; 0x80
30000148:	e129f000 	msr	CPSR_fc, r0
3000014c:	e59fd03c 	ldr	sp, [pc, #60]	; 30000190 <halt+0x24>
30000150:	e59ff03c 	ldr	pc, [pc, #60]	; 30000194 <halt+0x28>

30000154 <uart0init>:
30000154:	eb000266 	bl	30000af4 <uart0_init>
30000158:	eb000356 	bl	30000eb8 <my_printf_test1>

3000015c <undef_code>:
3000015c:	deadc0de 	mcrle	0, 5, ip, cr13, cr14, {6}
30000160:	ef001234 	svc	0x00001234
30000164:	eb000358 	bl	30000ecc <my_printf_test2>
30000168:	e59ff028 	ldr	pc, [pc, #40]	; 30000198 <halt+0x2c>

3000016c <halt>:
3000016c:	eafffffe 	b	3000016c <halt>
30000170:	30000044 	andcc	r0, r0, r4, asr #32
30000174:	33e00000 	mvncc	r0, #0
30000178:	30000094 	mulcc	r0, r4, r0
3000017c:	33d00000 	bicscc	r0, r0, #0
30000180:	4c000014 	stcmi	0, cr0, [r0], {20}
30000184:	4c000004 	stcmi	0, cr0, [r0], {4}
30000188:	0005c011 	andeq	ip, r5, r1, lsl r0
3000018c:	40001000 	andmi	r1, r0, r0
30000190:	33f00000 	mvnscc	r0, #0
30000194:	30000154 	andcc	r0, r0, r4, asr r1
30000198:	30001164 	andcc	r1, r0, r4, ror #2

3000019c <SDRAM_init>:
3000019c:	e3a03312 	mov	r3, #1207959552	; 0x48000000
300001a0:	e3a02422 	mov	r2, #570425344	; 0x22000000
300001a4:	e5832000 	str	r2, [r3]
300001a8:	e59f2024 	ldr	r2, [pc, #36]	; 300001d4 <SDRAM_init+0x38>
300001ac:	e583201c 	str	r2, [r3, #28]
300001b0:	e5832020 	str	r2, [r3, #32]
300001b4:	e59f201c 	ldr	r2, [pc, #28]	; 300001d8 <SDRAM_init+0x3c>
300001b8:	e5832024 	str	r2, [r3, #36]	; 0x24
300001bc:	e3a020b1 	mov	r2, #177	; 0xb1
300001c0:	e5832028 	str	r2, [r3, #40]	; 0x28
300001c4:	e3a02020 	mov	r2, #32
300001c8:	e583202c 	str	r2, [r3, #44]	; 0x2c
300001cc:	e5832030 	str	r2, [r3, #48]	; 0x30
300001d0:	e1a0f00e 	mov	pc, lr
300001d4:	00018001 	andeq	r8, r1, r1
300001d8:	008404f5 	strdeq	r0, [r4], r5

300001dc <isBootROMfromNOR>:
300001dc:	e24dd008 	sub	sp, sp, #8
300001e0:	e3a03000 	mov	r3, #0
300001e4:	e5932000 	ldr	r2, [r3]
300001e8:	e58d2004 	str	r2, [sp, #4]
300001ec:	e59f2020 	ldr	r2, [pc, #32]	; 30000214 <isBootROMfromNOR+0x38>
300001f0:	e5832000 	str	r2, [r3]
300001f4:	e5933000 	ldr	r3, [r3]
300001f8:	e1530002 	cmp	r3, r2
300001fc:	059d3004 	ldreq	r3, [sp, #4]
30000200:	03a00000 	moveq	r0, #0
30000204:	05803000 	streq	r3, [r0]
30000208:	13a00001 	movne	r0, #1
3000020c:	e28dd008 	add	sp, sp, #8
30000210:	e1a0f00e 	mov	pc, lr
30000214:	deadc0de 	mcrle	0, 5, ip, cr13, cr14, {6}

30000218 <copy2sdram>:
30000218:	e92d4010 	push	{r4, lr}
3000021c:	ebffffee 	bl	300001dc <isBootROMfromNOR>
30000220:	e3500000 	cmp	r0, #0
30000224:	0a000011 	beq	30000270 <copy2sdram+0x58>
30000228:	e59f305c 	ldr	r3, [pc, #92]	; 3000028c <copy2sdram+0x74>
3000022c:	e59f205c 	ldr	r2, [pc, #92]	; 30000290 <copy2sdram+0x78>
30000230:	e1520003 	cmp	r2, r3
30000234:	28bd8010 	popcs	{r4, pc}
30000238:	e2823004 	add	r3, r2, #4
3000023c:	e59f0050 	ldr	r0, [pc, #80]	; 30000294 <copy2sdram+0x7c>
30000240:	e0400003 	sub	r0, r0, r3
30000244:	e3c00003 	bic	r0, r0, #3
30000248:	e2800004 	add	r0, r0, #4
3000024c:	e3a03000 	mov	r3, #0
30000250:	e1a0c002 	mov	ip, r2
30000254:	e2832004 	add	r2, r3, #4
30000258:	e5931000 	ldr	r1, [r3]
3000025c:	e783100c 	str	r1, [r3, ip]
30000260:	e1a03002 	mov	r3, r2
30000264:	e1520000 	cmp	r2, r0
30000268:	1afffff9 	bne	30000254 <copy2sdram+0x3c>
3000026c:	e8bd8010 	pop	{r4, pc}
30000270:	eb000019 	bl	300002dc <nand_flash_init>
30000274:	e59f1014 	ldr	r1, [pc, #20]	; 30000290 <copy2sdram+0x78>
30000278:	e59f200c 	ldr	r2, [pc, #12]	; 3000028c <copy2sdram+0x74>
3000027c:	e0422001 	sub	r2, r2, r1
30000280:	e3a00000 	mov	r0, #0
30000284:	eb0000ac 	bl	3000053c <read_nand_flash>
30000288:	e8bd8010 	pop	{r4, pc}
3000028c:	30001e70 	andcc	r1, r0, r0, ror lr
30000290:	30000000 	andcc	r0, r0, r0
30000294:	30001e73 	andcc	r1, r0, r3, ror lr

30000298 <clean_reset_bss>:
30000298:	e59f3034 	ldr	r3, [pc, #52]	; 300002d4 <clean_reset_bss+0x3c>
3000029c:	e59f2034 	ldr	r2, [pc, #52]	; 300002d8 <clean_reset_bss+0x40>
300002a0:	e1520003 	cmp	r2, r3
300002a4:	81a0f00e 	movhi	pc, lr
300002a8:	e1a03002 	mov	r3, r2
300002ac:	e59f2020 	ldr	r2, [pc, #32]	; 300002d4 <clean_reset_bss+0x3c>
300002b0:	e0422003 	sub	r2, r2, r3
300002b4:	e3c22003 	bic	r2, r2, #3
300002b8:	e2822004 	add	r2, r2, #4
300002bc:	e0822003 	add	r2, r2, r3
300002c0:	e3a01000 	mov	r1, #0
300002c4:	e4831004 	str	r1, [r3], #4
300002c8:	e1530002 	cmp	r3, r2
300002cc:	1afffffc 	bne	300002c4 <clean_reset_bss+0x2c>
300002d0:	e1a0f00e 	mov	pc, lr
300002d4:	30001ef8 	strdcc	r1, [r0], -r8
300002d8:	30001e70 	andcc	r1, r0, r0, ror lr

300002dc <nand_flash_init>:
300002dc:	e3a0344e 	mov	r3, #1308622848	; 0x4e000000
300002e0:	e5932000 	ldr	r2, [r3]
300002e4:	e3c22a03 	bic	r2, r2, #12288	; 0x3000
300002e8:	e5832000 	str	r2, [r3]
300002ec:	e5932000 	ldr	r2, [r3]
300002f0:	e3c22c07 	bic	r2, r2, #1792	; 0x700
300002f4:	e5832000 	str	r2, [r3]
300002f8:	e5932000 	ldr	r2, [r3]
300002fc:	e3822c01 	orr	r2, r2, #256	; 0x100
30000300:	e5832000 	str	r2, [r3]
30000304:	e5932000 	ldr	r2, [r3]
30000308:	e3c22070 	bic	r2, r2, #112	; 0x70
3000030c:	e5832000 	str	r2, [r3]
30000310:	e5932004 	ldr	r2, [r3, #4]
30000314:	e3c22a01 	bic	r2, r2, #4096	; 0x1000
30000318:	e5832004 	str	r2, [r3, #4]
3000031c:	e5932004 	ldr	r2, [r3, #4]
30000320:	e3822013 	orr	r2, r2, #19
30000324:	e5832004 	str	r2, [r3, #4]
30000328:	e1a0f00e 	mov	pc, lr

3000032c <nand_cs_en>:
3000032c:	e3a0244e 	mov	r2, #1308622848	; 0x4e000000
30000330:	e5923004 	ldr	r3, [r2, #4]
30000334:	e3c33002 	bic	r3, r3, #2
30000338:	e5823004 	str	r3, [r2, #4]
3000033c:	e1a0f00e 	mov	pc, lr

30000340 <nand_cs_dis>:
30000340:	e3a0244e 	mov	r2, #1308622848	; 0x4e000000
30000344:	e5923004 	ldr	r3, [r2, #4]
30000348:	e3833002 	orr	r3, r3, #2
3000034c:	e5823004 	str	r3, [r2, #4]
30000350:	e1a0f00e 	mov	pc, lr

30000354 <nand_CMD>:
30000354:	e24dd008 	sub	sp, sp, #8
30000358:	e3a0344e 	mov	r3, #1308622848	; 0x4e000000
3000035c:	e5c30008 	strb	r0, [r3, #8]
30000360:	e3a03001 	mov	r3, #1
30000364:	e58d3004 	str	r3, [sp, #4]
30000368:	e59d3004 	ldr	r3, [sp, #4]
3000036c:	e3530009 	cmp	r3, #9
30000370:	ca000005 	bgt	3000038c <nand_CMD+0x38>
30000374:	e59d3004 	ldr	r3, [sp, #4]
30000378:	e2833001 	add	r3, r3, #1
3000037c:	e58d3004 	str	r3, [sp, #4]
30000380:	e59d3004 	ldr	r3, [sp, #4]
30000384:	e3530009 	cmp	r3, #9
30000388:	dafffff9 	ble	30000374 <nand_CMD+0x20>
3000038c:	e28dd008 	add	sp, sp, #8
30000390:	e1a0f00e 	mov	pc, lr

30000394 <nand_addr_byte>:
30000394:	e24dd008 	sub	sp, sp, #8
30000398:	e3a0344e 	mov	r3, #1308622848	; 0x4e000000
3000039c:	e5c3000c 	strb	r0, [r3, #12]
300003a0:	e3a03001 	mov	r3, #1
300003a4:	e58d3004 	str	r3, [sp, #4]
300003a8:	e59d3004 	ldr	r3, [sp, #4]
300003ac:	e3530009 	cmp	r3, #9
300003b0:	ca000005 	bgt	300003cc <nand_addr_byte+0x38>
300003b4:	e59d3004 	ldr	r3, [sp, #4]
300003b8:	e2833001 	add	r3, r3, #1
300003bc:	e58d3004 	str	r3, [sp, #4]
300003c0:	e59d3004 	ldr	r3, [sp, #4]
300003c4:	e3530009 	cmp	r3, #9
300003c8:	dafffff9 	ble	300003b4 <nand_addr_byte+0x20>
300003cc:	e28dd008 	add	sp, sp, #8
300003d0:	e1a0f00e 	mov	pc, lr

300003d4 <nand_r_data_byte>:
300003d4:	e3a0344e 	mov	r3, #1308622848	; 0x4e000000
300003d8:	e5d30010 	ldrb	r0, [r3, #16]
300003dc:	e1a0f00e 	mov	pc, lr

300003e0 <nand_w_data_byte>:
300003e0:	e3a0344e 	mov	r3, #1308622848	; 0x4e000000
300003e4:	e5c30010 	strb	r0, [r3, #16]
300003e8:	e1a0f00e 	mov	pc, lr

300003ec <wait_ready>:
300003ec:	e3a0244e 	mov	r2, #1308622848	; 0x4e000000
300003f0:	e5d23020 	ldrb	r3, [r2, #32]
300003f4:	e3130001 	tst	r3, #1
300003f8:	0afffffc 	beq	300003f0 <wait_ready+0x4>
300003fc:	e1a0f00e 	mov	pc, lr

30000400 <nand_flash_chipID>:
30000400:	e92d4030 	push	{r4, r5, lr}
30000404:	e24dd00c 	sub	sp, sp, #12
30000408:	e3a04000 	mov	r4, #0
3000040c:	e58d4000 	str	r4, [sp]
30000410:	e5cd4004 	strb	r4, [sp, #4]
30000414:	ebffffc4 	bl	3000032c <nand_cs_en>
30000418:	e3a00090 	mov	r0, #144	; 0x90
3000041c:	ebffffcc 	bl	30000354 <nand_CMD>
30000420:	e1a00004 	mov	r0, r4
30000424:	ebffffda 	bl	30000394 <nand_addr_byte>
30000428:	e1a0300d 	mov	r3, sp
3000042c:	e28d0005 	add	r0, sp, #5
30000430:	e3a0144e 	mov	r1, #1308622848	; 0x4e000000
30000434:	e5d12010 	ldrb	r2, [r1, #16]
30000438:	e4c32001 	strb	r2, [r3], #1
3000043c:	e1530000 	cmp	r3, r0
30000440:	1afffffb 	bne	30000434 <nand_flash_chipID+0x34>
30000444:	ebffffbd 	bl	30000340 <nand_cs_dis>
30000448:	e5dd1000 	ldrb	r1, [sp]
3000044c:	e59f00c0 	ldr	r0, [pc, #192]	; 30000514 <nand_flash_chipID+0x114>
30000450:	eb000225 	bl	30000cec <my_printf>
30000454:	e5dd1001 	ldrb	r1, [sp, #1]
30000458:	e59f00b8 	ldr	r0, [pc, #184]	; 30000518 <nand_flash_chipID+0x118>
3000045c:	eb000222 	bl	30000cec <my_printf>
30000460:	e5dd4002 	ldrb	r4, [sp, #2]
30000464:	e2041003 	and	r1, r4, #3
30000468:	e3a05001 	mov	r5, #1
3000046c:	e1a01115 	lsl	r1, r5, r1
30000470:	e59f00a4 	ldr	r0, [pc, #164]	; 3000051c <nand_flash_chipID+0x11c>
30000474:	eb00021c 	bl	30000cec <my_printf>
30000478:	e1a03144 	asr	r3, r4, #2
3000047c:	e2033003 	and	r3, r3, #3
30000480:	e3a01002 	mov	r1, #2
30000484:	e1a01311 	lsl	r1, r1, r3
30000488:	e59f0090 	ldr	r0, [pc, #144]	; 30000520 <nand_flash_chipID+0x120>
3000048c:	eb000216 	bl	30000cec <my_printf>
30000490:	e1a01244 	asr	r1, r4, #4
30000494:	e2011003 	and	r1, r1, #3
30000498:	e1a01115 	lsl	r1, r5, r1
3000049c:	e59f0080 	ldr	r0, [pc, #128]	; 30000524 <nand_flash_chipID+0x124>
300004a0:	eb000211 	bl	30000cec <my_printf>
300004a4:	e5dd4003 	ldrb	r4, [sp, #3]
300004a8:	e2041003 	and	r1, r4, #3
300004ac:	e1a01115 	lsl	r1, r5, r1
300004b0:	e59f0070 	ldr	r0, [pc, #112]	; 30000528 <nand_flash_chipID+0x128>
300004b4:	eb00020c 	bl	30000cec <my_printf>
300004b8:	e1a03244 	asr	r3, r4, #4
300004bc:	e2033003 	and	r3, r3, #3
300004c0:	e3a01040 	mov	r1, #64	; 0x40
300004c4:	e1a01311 	lsl	r1, r1, r3
300004c8:	e59f005c 	ldr	r0, [pc, #92]	; 3000052c <nand_flash_chipID+0x12c>
300004cc:	eb000206 	bl	30000cec <my_printf>
300004d0:	e1a01144 	asr	r1, r4, #2
300004d4:	e0011005 	and	r1, r1, r5
300004d8:	e3a05008 	mov	r5, #8
300004dc:	e1a01115 	lsl	r1, r5, r1
300004e0:	e1a01481 	lsl	r1, r1, #9
300004e4:	e59f0044 	ldr	r0, [pc, #68]	; 30000530 <nand_flash_chipID+0x130>
300004e8:	eb0001ff 	bl	30000cec <my_printf>
300004ec:	e1a01344 	asr	r1, r4, #6
300004f0:	e2011001 	and	r1, r1, #1
300004f4:	e1a01115 	lsl	r1, r5, r1
300004f8:	e59f0034 	ldr	r0, [pc, #52]	; 30000534 <nand_flash_chipID+0x134>
300004fc:	eb0001fa 	bl	30000cec <my_printf>
30000500:	e1a013a4 	lsr	r1, r4, #7
30000504:	e59f002c 	ldr	r0, [pc, #44]	; 30000538 <nand_flash_chipID+0x138>
30000508:	eb0001f7 	bl	30000cec <my_printf>
3000050c:	e28dd00c 	add	sp, sp, #12
30000510:	e8bd8030 	pop	{r4, r5, pc}
30000514:	30001704 	andcc	r1, r0, r4, lsl #14
30000518:	3000171c 	andcc	r1, r0, ip, lsl r7
3000051c:	30001730 	andcc	r1, r0, r0, lsr r7
30000520:	30001750 	andcc	r1, r0, r0, asr r7
30000524:	3000176c 	andcc	r1, r0, ip, ror #14
30000528:	300017a0 	andcc	r1, r0, r0, lsr #15
3000052c:	300017b4 			; <UNDEFINED> instruction: 0x300017b4
30000530:	300017cc 	andcc	r1, r0, ip, asr #15
30000534:	300017ec 	andcc	r1, r0, ip, ror #15
30000538:	30001804 	andcc	r1, r0, r4, lsl #16

3000053c <read_nand_flash>:
3000053c:	e92d4ff0 	push	{r4, r5, r6, r7, r8, r9, sl, fp, lr}
30000540:	e24dd00c 	sub	sp, sp, #12
30000544:	e58d0004 	str	r0, [sp, #4]
30000548:	e1a09001 	mov	r9, r1
3000054c:	e1a06002 	mov	r6, r2
30000550:	e59da004 	ldr	sl, [sp, #4]
30000554:	e59d4004 	ldr	r4, [sp, #4]
30000558:	ebffff73 	bl	3000032c <nand_cs_en>
3000055c:	e3560000 	cmp	r6, #0
30000560:	0a000032 	beq	30000630 <read_nand_flash+0xf4>
30000564:	e1a0a5aa 	lsr	sl, sl, #11
30000568:	e1a04a84 	lsl	r4, r4, #21
3000056c:	e1a04aa4 	lsr	r4, r4, #21
30000570:	e3a05000 	mov	r5, #0
30000574:	e1a0b005 	mov	fp, r5
30000578:	e59f70bc 	ldr	r7, [pc, #188]	; 3000063c <read_nand_flash+0x100>
3000057c:	e3a0844e 	mov	r8, #1308622848	; 0x4e000000
30000580:	e1a0000b 	mov	r0, fp
30000584:	ebffff72 	bl	30000354 <nand_CMD>
30000588:	e20400ff 	and	r0, r4, #255	; 0xff
3000058c:	ebffff80 	bl	30000394 <nand_addr_byte>
30000590:	e1a00424 	lsr	r0, r4, #8
30000594:	ebffff7e 	bl	30000394 <nand_addr_byte>
30000598:	e20a00ff 	and	r0, sl, #255	; 0xff
3000059c:	ebffff7c 	bl	30000394 <nand_addr_byte>
300005a0:	e1a0042a 	lsr	r0, sl, #8
300005a4:	e20000ff 	and	r0, r0, #255	; 0xff
300005a8:	ebffff79 	bl	30000394 <nand_addr_byte>
300005ac:	e1a0082a 	lsr	r0, sl, #16
300005b0:	e20000ff 	and	r0, r0, #255	; 0xff
300005b4:	ebffff76 	bl	30000394 <nand_addr_byte>
300005b8:	e3a00030 	mov	r0, #48	; 0x30
300005bc:	ebffff64 	bl	30000354 <nand_CMD>
300005c0:	ebffff89 	bl	300003ec <wait_ready>
300005c4:	e1540007 	cmp	r4, r7
300005c8:	83a03000 	movhi	r3, #0
300005cc:	93a03001 	movls	r3, #1
300005d0:	e1560005 	cmp	r6, r5
300005d4:	93a03000 	movls	r3, #0
300005d8:	e3530000 	cmp	r3, #0
300005dc:	0a00000f 	beq	30000620 <read_nand_flash+0xe4>
300005e0:	e1a01005 	mov	r1, r5
300005e4:	e2812001 	add	r2, r1, #1
300005e8:	e5d83010 	ldrb	r3, [r8, #16]
300005ec:	e20330ff 	and	r3, r3, #255	; 0xff
300005f0:	e7c93001 	strb	r3, [r9, r1]
300005f4:	e0823004 	add	r3, r2, r4
300005f8:	e1a01002 	mov	r1, r2
300005fc:	e0433005 	sub	r3, r3, r5
30000600:	e1530007 	cmp	r3, r7
30000604:	83a03000 	movhi	r3, #0
30000608:	93a03001 	movls	r3, #1
3000060c:	e1560002 	cmp	r6, r2
30000610:	93a03000 	movls	r3, #0
30000614:	e3530000 	cmp	r3, #0
30000618:	1afffff1 	bne	300005e4 <read_nand_flash+0xa8>
3000061c:	e1a05002 	mov	r5, r2
30000620:	e28aa001 	add	sl, sl, #1
30000624:	e1a0400b 	mov	r4, fp
30000628:	e1560005 	cmp	r6, r5
3000062c:	8affffd3 	bhi	30000580 <read_nand_flash+0x44>
30000630:	ebffff42 	bl	30000340 <nand_cs_dis>
30000634:	e28dd00c 	add	sp, sp, #12
30000638:	e8bd8ff0 	pop	{r4, r5, r6, r7, r8, r9, sl, fp, pc}
3000063c:	000007ff 	strdeq	r0, [r0], -pc	; <UNPREDICTABLE>

30000640 <read_nand_flash_menu>:
30000640:	e92d4ff0 	push	{r4, r5, r6, r7, r8, r9, sl, fp, lr}
30000644:	e24dd024 	sub	sp, sp, #36	; 0x24
30000648:	e3a04000 	mov	r4, #0
3000064c:	e58d401c 	str	r4, [sp, #28]
30000650:	e58d4000 	str	r4, [sp]
30000654:	e58d4004 	str	r4, [sp, #4]
30000658:	e58d4008 	str	r4, [sp, #8]
3000065c:	e58d400c 	str	r4, [sp, #12]
30000660:	e59f00a8 	ldr	r0, [pc, #168]	; 30000710 <read_nand_flash_menu+0xd0>
30000664:	eb0001a0 	bl	30000cec <my_printf>
30000668:	e28d0010 	add	r0, sp, #16
3000066c:	eb000155 	bl	30000bc8 <get_s>
30000670:	e3a02010 	mov	r2, #16
30000674:	e1a01004 	mov	r1, r4
30000678:	e08d0002 	add	r0, sp, r2
3000067c:	eb000391 	bl	300014c8 <strtol>
30000680:	e58d001c 	str	r0, [sp, #28]
30000684:	e3a09005 	mov	r9, #5
30000688:	e3a0b010 	mov	fp, #16
3000068c:	e08d700b 	add	r7, sp, fp
30000690:	e59f607c 	ldr	r6, [pc, #124]	; 30000714 <read_nand_flash_menu+0xd4>
30000694:	e59fa07c 	ldr	sl, [pc, #124]	; 30000718 <read_nand_flash_menu+0xd8>
30000698:	e59d001c 	ldr	r0, [sp, #28]
3000069c:	e1a0200b 	mov	r2, fp
300006a0:	e1a0100d 	mov	r1, sp
300006a4:	ebffffa4 	bl	3000053c <read_nand_flash>
300006a8:	e1a0500d 	mov	r5, sp
300006ac:	e1a0400d 	mov	r4, sp
300006b0:	e4d41001 	ldrb	r1, [r4], #1
300006b4:	e1a00006 	mov	r0, r6
300006b8:	eb00018b 	bl	30000cec <my_printf>
300006bc:	e1540007 	cmp	r4, r7
300006c0:	1afffffa 	bne	300006b0 <read_nand_flash_menu+0x70>
300006c4:	e1a0000a 	mov	r0, sl
300006c8:	eb000187 	bl	30000cec <my_printf>
300006cc:	e3a0802e 	mov	r8, #46	; 0x2e
300006d0:	e4d50001 	ldrb	r0, [r5], #1
300006d4:	e2403020 	sub	r3, r0, #32
300006d8:	e353005e 	cmp	r3, #94	; 0x5e
300006dc:	81a00008 	movhi	r0, r8
300006e0:	eb00011f 	bl	30000b64 <put_char>
300006e4:	e1540005 	cmp	r4, r5
300006e8:	1afffff8 	bne	300006d0 <read_nand_flash_menu+0x90>
300006ec:	e59f0028 	ldr	r0, [pc, #40]	; 3000071c <read_nand_flash_menu+0xdc>
300006f0:	eb00017d 	bl	30000cec <my_printf>
300006f4:	e59d301c 	ldr	r3, [sp, #28]
300006f8:	e2833010 	add	r3, r3, #16
300006fc:	e58d301c 	str	r3, [sp, #28]
30000700:	e2599001 	subs	r9, r9, #1
30000704:	1affffe3 	bne	30000698 <read_nand_flash_menu+0x58>
30000708:	e28dd024 	add	sp, sp, #36	; 0x24
3000070c:	e8bd8ff0 	pop	{r4, r5, r6, r7, r8, r9, sl, fp, pc}
30000710:	30001824 	andcc	r1, r0, r4, lsr #16
30000714:	30001844 	andcc	r1, r0, r4, asr #16
30000718:	3000184c 	andcc	r1, r0, ip, asr #16
3000071c:	30001850 	andcc	r1, r0, r0, asr r8

30000720 <erase_nand_flash_block>:
30000720:	e92d41f0 	push	{r4, r5, r6, r7, r8, lr}
30000724:	e1a04000 	mov	r4, r0
30000728:	e1a06001 	mov	r6, r1
3000072c:	e3c034ff 	bic	r3, r0, #-16777216	; 0xff000000
30000730:	e3d338fe 	bics	r3, r3, #16646144	; 0xfe0000
30000734:	1a000001 	bne	30000740 <erase_nand_flash_block+0x20>
30000738:	e1b03a81 	lsls	r3, r1, #21
3000073c:	0a000008 	beq	30000764 <erase_nand_flash_block+0x44>
30000740:	e59f007c 	ldr	r0, [pc, #124]	; 300007c4 <erase_nand_flash_block+0xa4>
30000744:	eb000168 	bl	30000cec <my_printf>
30000748:	e1a048a4 	lsr	r4, r4, #17
3000074c:	e1a04884 	lsl	r4, r4, #17
30000750:	e59f2070 	ldr	r2, [pc, #112]	; 300007c8 <erase_nand_flash_block+0xa8>
30000754:	e0842002 	add	r2, r4, r2
30000758:	e1a01004 	mov	r1, r4
3000075c:	e59f0068 	ldr	r0, [pc, #104]	; 300007cc <erase_nand_flash_block+0xac>
30000760:	eb000161 	bl	30000cec <my_printf>
30000764:	ebfffef0 	bl	3000032c <nand_cs_en>
30000768:	e3560000 	cmp	r6, #0
3000076c:	0a000011 	beq	300007b8 <erase_nand_flash_block+0x98>
30000770:	e3a08060 	mov	r8, #96	; 0x60
30000774:	e3a070d0 	mov	r7, #208	; 0xd0
30000778:	e1a055a4 	lsr	r5, r4, #11
3000077c:	e1a00008 	mov	r0, r8
30000780:	ebfffef3 	bl	30000354 <nand_CMD>
30000784:	e20500ff 	and	r0, r5, #255	; 0xff
30000788:	ebffff01 	bl	30000394 <nand_addr_byte>
3000078c:	e1a009a4 	lsr	r0, r4, #19
30000790:	e20000ff 	and	r0, r0, #255	; 0xff
30000794:	ebfffefe 	bl	30000394 <nand_addr_byte>
30000798:	e1a00da4 	lsr	r0, r4, #27
3000079c:	ebfffefc 	bl	30000394 <nand_addr_byte>
300007a0:	e1a00007 	mov	r0, r7
300007a4:	ebfffeea 	bl	30000354 <nand_CMD>
300007a8:	ebffff0f 	bl	300003ec <wait_ready>
300007ac:	e2844802 	add	r4, r4, #131072	; 0x20000
300007b0:	e2566802 	subs	r6, r6, #131072	; 0x20000
300007b4:	1affffef 	bne	30000778 <erase_nand_flash_block+0x58>
300007b8:	ebfffee0 	bl	30000340 <nand_cs_dis>
300007bc:	e3a00000 	mov	r0, #0
300007c0:	e8bd81f0 	pop	{r4, r5, r6, r7, r8, pc}
300007c4:	30001854 	andcc	r1, r0, r4, asr r8
300007c8:	0001ffff 	strdeq	pc, [r1], -pc	; <UNPREDICTABLE>
300007cc:	3000189c 	mulcc	r0, ip, r8

300007d0 <erase_nand_flash_block_menu>:
300007d0:	e52de004 	push	{lr}		; (str lr, [sp, #-4]!)
300007d4:	e24dd014 	sub	sp, sp, #20
300007d8:	e59f003c 	ldr	r0, [pc, #60]	; 3000081c <erase_nand_flash_block_menu+0x4c>
300007dc:	eb000142 	bl	30000cec <my_printf>
300007e0:	e28d0004 	add	r0, sp, #4
300007e4:	eb0000f7 	bl	30000bc8 <get_s>
300007e8:	e3a02010 	mov	r2, #16
300007ec:	e3a01000 	mov	r1, #0
300007f0:	e28d0004 	add	r0, sp, #4
300007f4:	eb000333 	bl	300014c8 <strtol>
300007f8:	e3a01802 	mov	r1, #131072	; 0x20000
300007fc:	ebffffc7 	bl	30000720 <erase_nand_flash_block>
30000800:	e3500000 	cmp	r0, #0
30000804:	0a000001 	beq	30000810 <erase_nand_flash_block_menu+0x40>
30000808:	e28dd014 	add	sp, sp, #20
3000080c:	e49df004 	pop	{pc}		; (ldr pc, [sp], #4)
30000810:	e59f0008 	ldr	r0, [pc, #8]	; 30000820 <erase_nand_flash_block_menu+0x50>
30000814:	eb000134 	bl	30000cec <my_printf>
30000818:	eafffffa 	b	30000808 <erase_nand_flash_block_menu+0x38>
3000081c:	300018e0 	andcc	r1, r0, r0, ror #17
30000820:	30001920 	andcc	r1, r0, r0, lsr #18

30000824 <write_nand_flash>:
30000824:	e92d4ff8 	push	{r3, r4, r5, r6, r7, r8, r9, sl, fp, lr}
30000828:	e1a0b001 	mov	fp, r1
3000082c:	e1a06002 	mov	r6, r2
30000830:	e1a095a0 	lsr	r9, r0, #11
30000834:	e1a00a80 	lsl	r0, r0, #21
30000838:	e1a05aa0 	lsr	r5, r0, #21
3000083c:	ebfffeba 	bl	3000032c <nand_cs_en>
30000840:	e3560000 	cmp	r6, #0
30000844:	0a00002e 	beq	30000904 <write_nand_flash+0xe0>
30000848:	e3a04000 	mov	r4, #0
3000084c:	e3a0a080 	mov	sl, #128	; 0x80
30000850:	e59f70b4 	ldr	r7, [pc, #180]	; 3000090c <write_nand_flash+0xe8>
30000854:	e3a0844e 	mov	r8, #1308622848	; 0x4e000000
30000858:	e1a0000a 	mov	r0, sl
3000085c:	ebfffebc 	bl	30000354 <nand_CMD>
30000860:	e20500ff 	and	r0, r5, #255	; 0xff
30000864:	ebfffeca 	bl	30000394 <nand_addr_byte>
30000868:	e1a00425 	lsr	r0, r5, #8
3000086c:	ebfffec8 	bl	30000394 <nand_addr_byte>
30000870:	e20900ff 	and	r0, r9, #255	; 0xff
30000874:	ebfffec6 	bl	30000394 <nand_addr_byte>
30000878:	e1a00429 	lsr	r0, r9, #8
3000087c:	e20000ff 	and	r0, r0, #255	; 0xff
30000880:	ebfffec3 	bl	30000394 <nand_addr_byte>
30000884:	e1a00829 	lsr	r0, r9, #16
30000888:	e20000ff 	and	r0, r0, #255	; 0xff
3000088c:	ebfffec0 	bl	30000394 <nand_addr_byte>
30000890:	e1550007 	cmp	r5, r7
30000894:	83a03000 	movhi	r3, #0
30000898:	93a03001 	movls	r3, #1
3000089c:	e1560004 	cmp	r6, r4
300008a0:	93a03000 	movls	r3, #0
300008a4:	e3530000 	cmp	r3, #0
300008a8:	0a00000e 	beq	300008e8 <write_nand_flash+0xc4>
300008ac:	e08b1004 	add	r1, fp, r4
300008b0:	e1a02004 	mov	r2, r4
300008b4:	e2822001 	add	r2, r2, #1
300008b8:	e4d13001 	ldrb	r3, [r1], #1
300008bc:	e5c83010 	strb	r3, [r8, #16]
300008c0:	e0823005 	add	r3, r2, r5
300008c4:	e0433004 	sub	r3, r3, r4
300008c8:	e1530007 	cmp	r3, r7
300008cc:	83a03000 	movhi	r3, #0
300008d0:	93a03001 	movls	r3, #1
300008d4:	e1560002 	cmp	r6, r2
300008d8:	93a03000 	movls	r3, #0
300008dc:	e3530000 	cmp	r3, #0
300008e0:	1afffff3 	bne	300008b4 <write_nand_flash+0x90>
300008e4:	e1a04002 	mov	r4, r2
300008e8:	e3a00010 	mov	r0, #16
300008ec:	ebfffe98 	bl	30000354 <nand_CMD>
300008f0:	ebfffebd 	bl	300003ec <wait_ready>
300008f4:	e2899001 	add	r9, r9, #1
300008f8:	e3a05000 	mov	r5, #0
300008fc:	e1560004 	cmp	r6, r4
30000900:	1affffd4 	bne	30000858 <write_nand_flash+0x34>
30000904:	ebfffe8d 	bl	30000340 <nand_cs_dis>
30000908:	e8bd8ff8 	pop	{r3, r4, r5, r6, r7, r8, r9, sl, fp, pc}
3000090c:	000007ff 	strdeq	r0, [r0], -pc	; <UNPREDICTABLE>

30000910 <write_nand_flash_menu>:
30000910:	e92d4010 	push	{r4, lr}
30000914:	e24dd070 	sub	sp, sp, #112	; 0x70
30000918:	e59f004c 	ldr	r0, [pc, #76]	; 3000096c <write_nand_flash_menu+0x5c>
3000091c:	eb0000f2 	bl	30000cec <my_printf>
30000920:	e28d0064 	add	r0, sp, #100	; 0x64
30000924:	eb0000a7 	bl	30000bc8 <get_s>
30000928:	e3a02010 	mov	r2, #16
3000092c:	e3a01000 	mov	r1, #0
30000930:	e28d0064 	add	r0, sp, #100	; 0x64
30000934:	eb0002e3 	bl	300014c8 <strtol>
30000938:	e1a04000 	mov	r4, r0
3000093c:	e59f002c 	ldr	r0, [pc, #44]	; 30000970 <write_nand_flash_menu+0x60>
30000940:	eb0000e9 	bl	30000cec <my_printf>
30000944:	e1a0000d 	mov	r0, sp
30000948:	eb00009e 	bl	30000bc8 <get_s>
3000094c:	e1a0000d 	mov	r0, sp
30000950:	eb000236 	bl	30001230 <strlen>
30000954:	e2802001 	add	r2, r0, #1
30000958:	e1a0100d 	mov	r1, sp
3000095c:	e1a00004 	mov	r0, r4
30000960:	ebffffaf 	bl	30000824 <write_nand_flash>
30000964:	e28dd070 	add	sp, sp, #112	; 0x70
30000968:	e8bd8010 	pop	{r4, pc}
3000096c:	3000192c 	andcc	r1, r0, ip, lsr #18
30000970:	3000194c 	andcc	r1, r0, ip, asr #18

30000974 <nand_flash_test>:
30000974:	e92d47f0 	push	{r4, r5, r6, r7, r8, r9, sl, lr}
30000978:	ebfffe57 	bl	300002dc <nand_flash_init>
3000097c:	e59fa154 	ldr	sl, [pc, #340]	; 30000ad8 <nand_flash_test+0x164>
30000980:	e59f9154 	ldr	r9, [pc, #340]	; 30000adc <nand_flash_test+0x168>
30000984:	e59f8154 	ldr	r8, [pc, #340]	; 30000ae0 <nand_flash_test+0x16c>
30000988:	e59f7154 	ldr	r7, [pc, #340]	; 30000ae4 <nand_flash_test+0x170>
3000098c:	e59f6154 	ldr	r6, [pc, #340]	; 30000ae8 <nand_flash_test+0x174>
30000990:	e59f5154 	ldr	r5, [pc, #340]	; 30000aec <nand_flash_test+0x178>
30000994:	ea000000 	b	3000099c <nand_flash_test+0x28>
30000998:	ebfffe98 	bl	30000400 <nand_flash_chipID>
3000099c:	e1a0000a 	mov	r0, sl
300009a0:	eb0000d1 	bl	30000cec <my_printf>
300009a4:	e1a00009 	mov	r0, r9
300009a8:	eb0000cf 	bl	30000cec <my_printf>
300009ac:	e1a00008 	mov	r0, r8
300009b0:	eb0000cd 	bl	30000cec <my_printf>
300009b4:	e1a00007 	mov	r0, r7
300009b8:	eb0000cb 	bl	30000cec <my_printf>
300009bc:	e1a00006 	mov	r0, r6
300009c0:	eb0000c9 	bl	30000cec <my_printf>
300009c4:	e1a00005 	mov	r0, r5
300009c8:	eb0000c7 	bl	30000cec <my_printf>
300009cc:	eb00006c 	bl	30000b84 <get_char>
300009d0:	e1a04000 	mov	r4, r0
300009d4:	e1a01000 	mov	r1, r0
300009d8:	e59f0110 	ldr	r0, [pc, #272]	; 30000af0 <nand_flash_test+0x17c>
300009dc:	eb0000c2 	bl	30000cec <my_printf>
300009e0:	e2444045 	sub	r4, r4, #69	; 0x45
300009e4:	e3540032 	cmp	r4, #50	; 0x32
300009e8:	979ff104 	ldrls	pc, [pc, r4, lsl #2]
300009ec:	eaffffea 	b	3000099c <nand_flash_test+0x28>
300009f0:	30000abc 			; <UNDEFINED> instruction: 0x30000abc
300009f4:	3000099c 	mulcc	r0, ip, r9
300009f8:	3000099c 	mulcc	r0, ip, r9
300009fc:	3000099c 	mulcc	r0, ip, r9
30000a00:	3000099c 	mulcc	r0, ip, r9
30000a04:	3000099c 	mulcc	r0, ip, r9
30000a08:	3000099c 	mulcc	r0, ip, r9
30000a0c:	3000099c 	mulcc	r0, ip, r9
30000a10:	3000099c 	mulcc	r0, ip, r9
30000a14:	3000099c 	mulcc	r0, ip, r9
30000a18:	3000099c 	mulcc	r0, ip, r9
30000a1c:	3000099c 	mulcc	r0, ip, r9
30000a20:	30000ad4 	ldrdcc	r0, [r0], -r4
30000a24:	30000acc 	andcc	r0, r0, ip, asr #21
30000a28:	30000998 	mulcc	r0, r8, r9
30000a2c:	3000099c 	mulcc	r0, ip, r9
30000a30:	3000099c 	mulcc	r0, ip, r9
30000a34:	3000099c 	mulcc	r0, ip, r9
30000a38:	30000ac4 	andcc	r0, r0, r4, asr #21
30000a3c:	3000099c 	mulcc	r0, ip, r9
30000a40:	3000099c 	mulcc	r0, ip, r9
30000a44:	3000099c 	mulcc	r0, ip, r9
30000a48:	3000099c 	mulcc	r0, ip, r9
30000a4c:	3000099c 	mulcc	r0, ip, r9
30000a50:	3000099c 	mulcc	r0, ip, r9
30000a54:	3000099c 	mulcc	r0, ip, r9
30000a58:	3000099c 	mulcc	r0, ip, r9
30000a5c:	3000099c 	mulcc	r0, ip, r9
30000a60:	3000099c 	mulcc	r0, ip, r9
30000a64:	3000099c 	mulcc	r0, ip, r9
30000a68:	3000099c 	mulcc	r0, ip, r9
30000a6c:	3000099c 	mulcc	r0, ip, r9
30000a70:	30000abc 			; <UNDEFINED> instruction: 0x30000abc
30000a74:	3000099c 	mulcc	r0, ip, r9
30000a78:	3000099c 	mulcc	r0, ip, r9
30000a7c:	3000099c 	mulcc	r0, ip, r9
30000a80:	3000099c 	mulcc	r0, ip, r9
30000a84:	3000099c 	mulcc	r0, ip, r9
30000a88:	3000099c 	mulcc	r0, ip, r9
30000a8c:	3000099c 	mulcc	r0, ip, r9
30000a90:	3000099c 	mulcc	r0, ip, r9
30000a94:	3000099c 	mulcc	r0, ip, r9
30000a98:	3000099c 	mulcc	r0, ip, r9
30000a9c:	3000099c 	mulcc	r0, ip, r9
30000aa0:	30000ad4 	ldrdcc	r0, [r0], -r4
30000aa4:	30000acc 	andcc	r0, r0, ip, asr #21
30000aa8:	30000998 	mulcc	r0, r8, r9
30000aac:	3000099c 	mulcc	r0, ip, r9
30000ab0:	3000099c 	mulcc	r0, ip, r9
30000ab4:	3000099c 	mulcc	r0, ip, r9
30000ab8:	30000ac4 	andcc	r0, r0, r4, asr #21
30000abc:	ebffff43 	bl	300007d0 <erase_nand_flash_block_menu>
30000ac0:	eaffffb5 	b	3000099c <nand_flash_test+0x28>
30000ac4:	ebffff91 	bl	30000910 <write_nand_flash_menu>
30000ac8:	eaffffb3 	b	3000099c <nand_flash_test+0x28>
30000acc:	ebfffedb 	bl	30000640 <read_nand_flash_menu>
30000ad0:	eaffffb1 	b	3000099c <nand_flash_test+0x28>
30000ad4:	e8bd87f0 	pop	{r4, r5, r6, r7, r8, r9, sl, pc}
30000ad8:	30001968 	andcc	r1, r0, r8, ror #18
30000adc:	30001980 	andcc	r1, r0, r0, lsl #19
30000ae0:	300019a0 	andcc	r1, r0, r0, lsr #19
30000ae4:	300019b8 			; <UNDEFINED> instruction: 0x300019b8
30000ae8:	300019d0 	ldrdcc	r1, [r0], -r0
30000aec:	300019dc 	ldrdcc	r1, [r0], -ip
30000af0:	300019e8 	andcc	r1, r0, r8, ror #19

30000af4 <uart0_init>:
30000af4:	e3a02456 	mov	r2, #1442840576	; 0x56000000
30000af8:	e5923070 	ldr	r3, [r2, #112]	; 0x70
30000afc:	e3c330f0 	bic	r3, r3, #240	; 0xf0
30000b00:	e5823070 	str	r3, [r2, #112]	; 0x70
30000b04:	e5923070 	ldr	r3, [r2, #112]	; 0x70
30000b08:	e38330a0 	orr	r3, r3, #160	; 0xa0
30000b0c:	e5823070 	str	r3, [r2, #112]	; 0x70
30000b10:	e5923078 	ldr	r3, [r2, #120]	; 0x78
30000b14:	e1e03003 	mvn	r3, r3
30000b18:	e203300c 	and	r3, r3, #12
30000b1c:	e1e03003 	mvn	r3, r3
30000b20:	e5823078 	str	r3, [r2, #120]	; 0x78
30000b24:	e3a03205 	mov	r3, #1342177280	; 0x50000000
30000b28:	e3a0201a 	mov	r2, #26
30000b2c:	e5832028 	str	r2, [r3, #40]	; 0x28
30000b30:	e5932004 	ldr	r2, [r3, #4]
30000b34:	e3c22b03 	bic	r2, r2, #3072	; 0xc00
30000b38:	e5832004 	str	r2, [r3, #4]
30000b3c:	e5932004 	ldr	r2, [r3, #4]
30000b40:	e3822004 	orr	r2, r2, #4
30000b44:	e5832004 	str	r2, [r3, #4]
30000b48:	e5932004 	ldr	r2, [r3, #4]
30000b4c:	e3822001 	orr	r2, r2, #1
30000b50:	e5832004 	str	r2, [r3, #4]
30000b54:	e5932000 	ldr	r2, [r3]
30000b58:	e3822003 	orr	r2, r2, #3
30000b5c:	e5832000 	str	r2, [r3]
30000b60:	e1a0f00e 	mov	pc, lr

30000b64 <put_char>:
30000b64:	e3a02205 	mov	r2, #1342177280	; 0x50000000
30000b68:	e5923010 	ldr	r3, [r2, #16]
30000b6c:	e3130004 	tst	r3, #4
30000b70:	0afffffc 	beq	30000b68 <put_char+0x4>
30000b74:	e20000ff 	and	r0, r0, #255	; 0xff
30000b78:	e3a03205 	mov	r3, #1342177280	; 0x50000000
30000b7c:	e5c30020 	strb	r0, [r3, #32]
30000b80:	e1a0f00e 	mov	pc, lr

30000b84 <get_char>:
30000b84:	e3a02205 	mov	r2, #1342177280	; 0x50000000
30000b88:	e5923010 	ldr	r3, [r2, #16]
30000b8c:	e3130001 	tst	r3, #1
30000b90:	0afffffc 	beq	30000b88 <get_char+0x4>
30000b94:	e3a03205 	mov	r3, #1342177280	; 0x50000000
30000b98:	e5d30024 	ldrb	r0, [r3, #36]	; 0x24
30000b9c:	e1a0f00e 	mov	pc, lr

30000ba0 <put_s>:
30000ba0:	e92d4010 	push	{r4, lr}
30000ba4:	e1a04000 	mov	r4, r0
30000ba8:	e5d00000 	ldrb	r0, [r0]
30000bac:	e3500000 	cmp	r0, #0
30000bb0:	08bd8010 	popeq	{r4, pc}
30000bb4:	ebffffea 	bl	30000b64 <put_char>
30000bb8:	e5f40001 	ldrb	r0, [r4, #1]!
30000bbc:	e3500000 	cmp	r0, #0
30000bc0:	1afffffb 	bne	30000bb4 <put_s+0x14>
30000bc4:	e8bd8010 	pop	{r4, pc}

30000bc8 <get_s>:
30000bc8:	e92d41f0 	push	{r4, r5, r6, r7, r8, lr}
30000bcc:	e1a07000 	mov	r7, r0
30000bd0:	e2406001 	sub	r6, r0, #1
30000bd4:	e3a05000 	mov	r5, #0
30000bd8:	ea000007 	b	30000bfc <get_s+0x34>
30000bdc:	e3a0000d 	mov	r0, #13
30000be0:	ebffffdf 	bl	30000b64 <put_char>
30000be4:	e3a03000 	mov	r3, #0
30000be8:	e7c73005 	strb	r3, [r7, r5]
30000bec:	e1a00007 	mov	r0, r7
30000bf0:	e8bd81f0 	pop	{r4, r5, r6, r7, r8, pc}
30000bf4:	e2855001 	add	r5, r5, #1
30000bf8:	e5e64001 	strb	r4, [r6, #1]!
30000bfc:	ebffffe0 	bl	30000b84 <get_char>
30000c00:	e1a04000 	mov	r4, r0
30000c04:	ebffffd6 	bl	30000b64 <put_char>
30000c08:	e354000a 	cmp	r4, #10
30000c0c:	0afffff2 	beq	30000bdc <get_s+0x14>
30000c10:	e354000d 	cmp	r4, #13
30000c14:	1afffff6 	bne	30000bf4 <get_s+0x2c>
30000c18:	e3a0000a 	mov	r0, #10
30000c1c:	ebffffd0 	bl	30000b64 <put_char>
30000c20:	eaffffef 	b	30000be4 <get_s+0x1c>

30000c24 <out_num>:
30000c24:	e92d4ff0 	push	{r4, r5, r6, r7, r8, r9, sl, fp, lr}
30000c28:	e24dd044 	sub	sp, sp, #68	; 0x44
30000c2c:	e1a07001 	mov	r7, r1
30000c30:	e1a09002 	mov	r9, r2
30000c34:	e1a0a003 	mov	sl, r3
30000c38:	e28d4040 	add	r4, sp, #64	; 0x40
30000c3c:	e3a03000 	mov	r3, #0
30000c40:	e5643001 	strb	r3, [r4, #-1]!
30000c44:	e250b000 	subs	fp, r0, #0
30000c48:	e0205fc0 	eor	r5, r0, r0, asr #31
30000c4c:	e0455fc0 	sub	r5, r5, r0, asr #31
30000c50:	e1a06003 	mov	r6, r3
30000c54:	e59f808c 	ldr	r8, [pc, #140]	; 30000ce8 <out_num+0xc4>
30000c58:	e1a01007 	mov	r1, r7
30000c5c:	e1a00005 	mov	r0, r5
30000c60:	eb00025c 	bl	300015d8 <__aeabi_uidivmod>
30000c64:	e7d83001 	ldrb	r3, [r8, r1]
30000c68:	e5643001 	strb	r3, [r4, #-1]!
30000c6c:	e2866001 	add	r6, r6, #1
30000c70:	e1a01007 	mov	r1, r7
30000c74:	e1a00005 	mov	r0, r5
30000c78:	eb000219 	bl	300014e4 <__aeabi_uidiv>
30000c7c:	e2505000 	subs	r5, r0, #0
30000c80:	1afffff4 	bne	30000c58 <out_num+0x34>
30000c84:	e35a0000 	cmp	sl, #0
30000c88:	1156000a 	cmpne	r6, sl
30000c8c:	aa000007 	bge	30000cb0 <out_num+0x8c>
30000c90:	e05a6006 	subs	r6, sl, r6
30000c94:	0a000005 	beq	30000cb0 <out_num+0x8c>
30000c98:	e0442006 	sub	r2, r4, r6
30000c9c:	e1a03004 	mov	r3, r4
30000ca0:	e5639001 	strb	r9, [r3, #-1]!
30000ca4:	e1520003 	cmp	r2, r3
30000ca8:	1afffffc 	bne	30000ca0 <out_num+0x7c>
30000cac:	e0444006 	sub	r4, r4, r6
30000cb0:	e35b0000 	cmp	fp, #0
30000cb4:	b3a0302d 	movlt	r3, #45	; 0x2d
30000cb8:	b5443001 	strblt	r3, [r4, #-1]
30000cbc:	b2444001 	sublt	r4, r4, #1
30000cc0:	e5d40000 	ldrb	r0, [r4]
30000cc4:	e3500000 	cmp	r0, #0
30000cc8:	0a000003 	beq	30000cdc <out_num+0xb8>
30000ccc:	ebffffa4 	bl	30000b64 <put_char>
30000cd0:	e5f40001 	ldrb	r0, [r4, #1]!
30000cd4:	e3500000 	cmp	r0, #0
30000cd8:	1afffffb 	bne	30000ccc <out_num+0xa8>
30000cdc:	e3a00000 	mov	r0, #0
30000ce0:	e28dd044 	add	sp, sp, #68	; 0x44
30000ce4:	e8bd8ff0 	pop	{r4, r5, r6, r7, r8, r9, sl, fp, pc}
30000ce8:	30001a28 	andcc	r1, r0, r8, lsr #20

30000cec <my_printf>:
30000cec:	e92d000f 	push	{r0, r1, r2, r3}
30000cf0:	e92d4ff8 	push	{r3, r4, r5, r6, r7, r8, r9, sl, fp, lr}
30000cf4:	e59d5028 	ldr	r5, [sp, #40]	; 0x28
30000cf8:	e5d50000 	ldrb	r0, [r5]
30000cfc:	e3500000 	cmp	r0, #0
30000d00:	0a000068 	beq	30000ea8 <my_printf+0x1bc>
30000d04:	e28d602c 	add	r6, sp, #44	; 0x2c
30000d08:	e3a0b010 	mov	fp, #16
30000d0c:	e3a0a00a 	mov	sl, #10
30000d10:	e3a07000 	mov	r7, #0
30000d14:	e3a09030 	mov	r9, #48	; 0x30
30000d18:	e3a08020 	mov	r8, #32
30000d1c:	ea000036 	b	30000dfc <my_printf+0x110>
30000d20:	e5d53001 	ldrb	r3, [r5, #1]
30000d24:	e3530030 	cmp	r3, #48	; 0x30
30000d28:	12854001 	addne	r4, r5, #1
30000d2c:	11a02008 	movne	r2, r8
30000d30:	02854002 	addeq	r4, r5, #2
30000d34:	01a02009 	moveq	r2, r9
30000d38:	e5d40000 	ldrb	r0, [r4]
30000d3c:	e2403030 	sub	r3, r0, #48	; 0x30
30000d40:	e3530009 	cmp	r3, #9
30000d44:	8a000021 	bhi	30000dd0 <my_printf+0xe4>
30000d48:	e1a03007 	mov	r3, r7
30000d4c:	e0833103 	add	r3, r3, r3, lsl #2
30000d50:	e2400030 	sub	r0, r0, #48	; 0x30
30000d54:	e0803083 	add	r3, r0, r3, lsl #1
30000d58:	e5f40001 	ldrb	r0, [r4, #1]!
30000d5c:	e2401030 	sub	r1, r0, #48	; 0x30
30000d60:	e3510009 	cmp	r1, #9
30000d64:	9afffff8 	bls	30000d4c <my_printf+0x60>
30000d68:	e2401063 	sub	r1, r0, #99	; 0x63
30000d6c:	e3510015 	cmp	r1, #21
30000d70:	979ff101 	ldrls	pc, [pc, r1, lsl #2]
30000d74:	ea000047 	b	30000e98 <my_printf+0x1ac>
30000d78:	30000e58 	andcc	r0, r0, r8, asr lr
30000d7c:	30000dd8 	ldrdcc	r0, [r0], -r8
30000d80:	30000e98 	mulcc	r0, r8, lr
30000d84:	30000e98 	mulcc	r0, r8, lr
30000d88:	30000e98 	mulcc	r0, r8, lr
30000d8c:	30000e98 	mulcc	r0, r8, lr
30000d90:	30000e98 	mulcc	r0, r8, lr
30000d94:	30000e98 	mulcc	r0, r8, lr
30000d98:	30000e98 	mulcc	r0, r8, lr
30000d9c:	30000e98 	mulcc	r0, r8, lr
30000da0:	30000e98 	mulcc	r0, r8, lr
30000da4:	30000e98 	mulcc	r0, r8, lr
30000da8:	30000e10 	andcc	r0, r0, r0, lsl lr
30000dac:	30000e98 	mulcc	r0, r8, lr
30000db0:	30000e98 	mulcc	r0, r8, lr
30000db4:	30000e98 	mulcc	r0, r8, lr
30000db8:	30000e6c 	andcc	r0, r0, ip, ror #28
30000dbc:	30000e98 	mulcc	r0, r8, lr
30000dc0:	30000e28 	andcc	r0, r0, r8, lsr #28
30000dc4:	30000e98 	mulcc	r0, r8, lr
30000dc8:	30000e98 	mulcc	r0, r8, lr
30000dcc:	30000e40 	andcc	r0, r0, r0, asr #28
30000dd0:	e1a03007 	mov	r3, r7
30000dd4:	eaffffe3 	b	30000d68 <my_printf+0x7c>
30000dd8:	e2865004 	add	r5, r6, #4
30000ddc:	e1a0100a 	mov	r1, sl
30000de0:	e5960000 	ldr	r0, [r6]
30000de4:	ebffff8e 	bl	30000c24 <out_num>
30000de8:	e1a06005 	mov	r6, r5
30000dec:	e2845001 	add	r5, r4, #1
30000df0:	e5d40001 	ldrb	r0, [r4, #1]
30000df4:	e3500000 	cmp	r0, #0
30000df8:	0a00002a 	beq	30000ea8 <my_printf+0x1bc>
30000dfc:	e3500025 	cmp	r0, #37	; 0x25
30000e00:	0affffc6 	beq	30000d20 <my_printf+0x34>
30000e04:	ebffff56 	bl	30000b64 <put_char>
30000e08:	e1a04005 	mov	r4, r5
30000e0c:	eafffff6 	b	30000dec <my_printf+0x100>
30000e10:	e2865004 	add	r5, r6, #4
30000e14:	e3a01008 	mov	r1, #8
30000e18:	e5960000 	ldr	r0, [r6]
30000e1c:	ebffff80 	bl	30000c24 <out_num>
30000e20:	e1a06005 	mov	r6, r5
30000e24:	eafffff0 	b	30000dec <my_printf+0x100>
30000e28:	e2865004 	add	r5, r6, #4
30000e2c:	e1a0100a 	mov	r1, sl
30000e30:	e5960000 	ldr	r0, [r6]
30000e34:	ebffff7a 	bl	30000c24 <out_num>
30000e38:	e1a06005 	mov	r6, r5
30000e3c:	eaffffea 	b	30000dec <my_printf+0x100>
30000e40:	e2865004 	add	r5, r6, #4
30000e44:	e1a0100b 	mov	r1, fp
30000e48:	e5960000 	ldr	r0, [r6]
30000e4c:	ebffff74 	bl	30000c24 <out_num>
30000e50:	e1a06005 	mov	r6, r5
30000e54:	eaffffe4 	b	30000dec <my_printf+0x100>
30000e58:	e2865004 	add	r5, r6, #4
30000e5c:	e5960000 	ldr	r0, [r6]
30000e60:	ebffff3f 	bl	30000b64 <put_char>
30000e64:	e1a06005 	mov	r6, r5
30000e68:	eaffffdf 	b	30000dec <my_printf+0x100>
30000e6c:	e2865004 	add	r5, r6, #4
30000e70:	e5966000 	ldr	r6, [r6]
30000e74:	e5d60000 	ldrb	r0, [r6]
30000e78:	e3500000 	cmp	r0, #0
30000e7c:	0a000007 	beq	30000ea0 <my_printf+0x1b4>
30000e80:	ebffff37 	bl	30000b64 <put_char>
30000e84:	e5f60001 	ldrb	r0, [r6, #1]!
30000e88:	e3500000 	cmp	r0, #0
30000e8c:	1afffffb 	bne	30000e80 <my_printf+0x194>
30000e90:	e1a06005 	mov	r6, r5
30000e94:	eaffffd4 	b	30000dec <my_printf+0x100>
30000e98:	ebffff31 	bl	30000b64 <put_char>
30000e9c:	eaffffd2 	b	30000dec <my_printf+0x100>
30000ea0:	e1a06005 	mov	r6, r5
30000ea4:	eaffffd0 	b	30000dec <my_printf+0x100>
30000ea8:	e3a00000 	mov	r0, #0
30000eac:	e8bd4ff8 	pop	{r3, r4, r5, r6, r7, r8, r9, sl, fp, lr}
30000eb0:	e28dd010 	add	sp, sp, #16
30000eb4:	e1a0f00e 	mov	pc, lr

30000eb8 <my_printf_test1>:
30000eb8:	e92d4010 	push	{r4, lr}
30000ebc:	e59f0004 	ldr	r0, [pc, #4]	; 30000ec8 <my_printf_test1+0x10>
30000ec0:	ebffff89 	bl	30000cec <my_printf>
30000ec4:	e8bd8010 	pop	{r4, pc}
30000ec8:	300019f0 	strdcc	r1, [r0], -r0

30000ecc <my_printf_test2>:
30000ecc:	e92d4010 	push	{r4, lr}
30000ed0:	e59f0004 	ldr	r0, [pc, #4]	; 30000edc <my_printf_test2+0x10>
30000ed4:	ebffff84 	bl	30000cec <my_printf>
30000ed8:	e8bd8010 	pop	{r4, pc}
30000edc:	300019f8 	strdcc	r1, [r0], -r8

30000ee0 <key_eint_irq>:
30000ee0:	e3a03456 	mov	r3, #1442840576	; 0x56000000
30000ee4:	e59320a8 	ldr	r2, [r3, #168]	; 0xa8
30000ee8:	e3500000 	cmp	r0, #0
30000eec:	1a000009 	bne	30000f18 <key_eint_irq+0x38>
30000ef0:	e5933054 	ldr	r3, [r3, #84]	; 0x54
30000ef4:	e3130001 	tst	r3, #1
30000ef8:	e3a01456 	mov	r1, #1442840576	; 0x56000000
30000efc:	e5913054 	ldr	r3, [r1, #84]	; 0x54
30000f00:	13833040 	orrne	r3, r3, #64	; 0x40
30000f04:	03c33040 	biceq	r3, r3, #64	; 0x40
30000f08:	e5813054 	str	r3, [r1, #84]	; 0x54
30000f0c:	e3a03456 	mov	r3, #1442840576	; 0x56000000
30000f10:	e58320a8 	str	r2, [r3, #168]	; 0xa8
30000f14:	e1a0f00e 	mov	pc, lr
30000f18:	e3500002 	cmp	r0, #2
30000f1c:	0a00000e 	beq	30000f5c <key_eint_irq+0x7c>
30000f20:	e3500005 	cmp	r0, #5
30000f24:	1afffff8 	bne	30000f0c <key_eint_irq+0x2c>
30000f28:	e3a03456 	mov	r3, #1442840576	; 0x56000000
30000f2c:	e59330a8 	ldr	r3, [r3, #168]	; 0xa8
30000f30:	e3130b02 	tst	r3, #2048	; 0x800
30000f34:	0a000011 	beq	30000f80 <key_eint_irq+0xa0>
30000f38:	e3a03456 	mov	r3, #1442840576	; 0x56000000
30000f3c:	e5933064 	ldr	r3, [r3, #100]	; 0x64
30000f40:	e3130008 	tst	r3, #8
30000f44:	e3a01456 	mov	r1, #1442840576	; 0x56000000
30000f48:	e5913054 	ldr	r3, [r1, #84]	; 0x54
30000f4c:	13833010 	orrne	r3, r3, #16
30000f50:	03c33010 	biceq	r3, r3, #16
30000f54:	e5813054 	str	r3, [r1, #84]	; 0x54
30000f58:	eaffffeb 	b	30000f0c <key_eint_irq+0x2c>
30000f5c:	e3a03456 	mov	r3, #1442840576	; 0x56000000
30000f60:	e5933054 	ldr	r3, [r3, #84]	; 0x54
30000f64:	e3130004 	tst	r3, #4
30000f68:	e3a01456 	mov	r1, #1442840576	; 0x56000000
30000f6c:	e5913054 	ldr	r3, [r1, #84]	; 0x54
30000f70:	13833020 	orrne	r3, r3, #32
30000f74:	03c33020 	biceq	r3, r3, #32
30000f78:	e5813054 	str	r3, [r1, #84]	; 0x54
30000f7c:	eaffffe2 	b	30000f0c <key_eint_irq+0x2c>
30000f80:	e3a03456 	mov	r3, #1442840576	; 0x56000000
30000f84:	e59330a8 	ldr	r3, [r3, #168]	; 0xa8
30000f88:	e3130702 	tst	r3, #524288	; 0x80000
30000f8c:	0affffde 	beq	30000f0c <key_eint_irq+0x2c>
30000f90:	e3a03456 	mov	r3, #1442840576	; 0x56000000
30000f94:	e5933064 	ldr	r3, [r3, #100]	; 0x64
30000f98:	e3130b02 	tst	r3, #2048	; 0x800
30000f9c:	e3a01456 	mov	r1, #1442840576	; 0x56000000
30000fa0:	e5913054 	ldr	r3, [r1, #84]	; 0x54
30000fa4:	13833070 	orrne	r3, r3, #112	; 0x70
30000fa8:	03c33070 	biceq	r3, r3, #112	; 0x70
30000fac:	e5813054 	str	r3, [r1, #84]	; 0x54
30000fb0:	eaffffd5 	b	30000f0c <key_eint_irq+0x2c>

30000fb4 <key_GPIO_eint_init>:
30000fb4:	e92d4010 	push	{r4, lr}
30000fb8:	e3a03456 	mov	r3, #1442840576	; 0x56000000
30000fbc:	e5932050 	ldr	r2, [r3, #80]	; 0x50
30000fc0:	e3c22033 	bic	r2, r2, #51	; 0x33
30000fc4:	e5832050 	str	r2, [r3, #80]	; 0x50
30000fc8:	e5932050 	ldr	r2, [r3, #80]	; 0x50
30000fcc:	e3822022 	orr	r2, r2, #34	; 0x22
30000fd0:	e5832050 	str	r2, [r3, #80]	; 0x50
30000fd4:	e5932060 	ldr	r2, [r3, #96]	; 0x60
30000fd8:	e3c22503 	bic	r2, r2, #12582912	; 0xc00000
30000fdc:	e3c220c0 	bic	r2, r2, #192	; 0xc0
30000fe0:	e5832060 	str	r2, [r3, #96]	; 0x60
30000fe4:	e5932060 	ldr	r2, [r3, #96]	; 0x60
30000fe8:	e3822502 	orr	r2, r2, #8388608	; 0x800000
30000fec:	e3822080 	orr	r2, r2, #128	; 0x80
30000ff0:	e5832060 	str	r2, [r3, #96]	; 0x60
30000ff4:	e5932088 	ldr	r2, [r3, #136]	; 0x88
30000ff8:	e3822c06 	orr	r2, r2, #1536	; 0x600
30000ffc:	e3822006 	orr	r2, r2, #6
30001000:	e5832088 	str	r2, [r3, #136]	; 0x88
30001004:	e593208c 	ldr	r2, [r3, #140]	; 0x8c
30001008:	e3822a06 	orr	r2, r2, #24576	; 0x6000
3000100c:	e583208c 	str	r2, [r3, #140]	; 0x8c
30001010:	e5932090 	ldr	r2, [r3, #144]	; 0x90
30001014:	e3822a06 	orr	r2, r2, #24576	; 0x6000
30001018:	e5832090 	str	r2, [r3, #144]	; 0x90
3000101c:	e59320a4 	ldr	r2, [r3, #164]	; 0xa4
30001020:	e3c22702 	bic	r2, r2, #524288	; 0x80000
30001024:	e3c22b02 	bic	r2, r2, #2048	; 0x800
30001028:	e58320a4 	str	r2, [r3, #164]	; 0xa4
3000102c:	e59f4024 	ldr	r4, [pc, #36]	; 30001058 <key_GPIO_eint_init+0xa4>
30001030:	e1a01004 	mov	r1, r4
30001034:	e3a00000 	mov	r0, #0
30001038:	eb000017 	bl	3000109c <IRQ_registration>
3000103c:	e1a01004 	mov	r1, r4
30001040:	e3a00002 	mov	r0, #2
30001044:	eb000014 	bl	3000109c <IRQ_registration>
30001048:	e1a01004 	mov	r1, r4
3000104c:	e3a00005 	mov	r0, #5
30001050:	eb000011 	bl	3000109c <IRQ_registration>
30001054:	e8bd8010 	pop	{r4, pc}
30001058:	30000ee0 	andcc	r0, r0, r0, ror #29

3000105c <GPIO_LED_init>:
3000105c:	e3a03456 	mov	r3, #1442840576	; 0x56000000
30001060:	e5932050 	ldr	r2, [r3, #80]	; 0x50
30001064:	e3c22c3f 	bic	r2, r2, #16128	; 0x3f00
30001068:	e5832050 	str	r2, [r3, #80]	; 0x50
3000106c:	e5932050 	ldr	r2, [r3, #80]	; 0x50
30001070:	e3822c15 	orr	r2, r2, #5376	; 0x1500
30001074:	e5832050 	str	r2, [r3, #80]	; 0x50
30001078:	e5932054 	ldr	r2, [r3, #84]	; 0x54
3000107c:	e3822070 	orr	r2, r2, #112	; 0x70
30001080:	e5832054 	str	r2, [r3, #84]	; 0x54
30001084:	e1a0f00e 	mov	pc, lr

30001088 <GPIO_LED_test1>:
30001088:	e3a02456 	mov	r2, #1442840576	; 0x56000000
3000108c:	e5923054 	ldr	r3, [r2, #84]	; 0x54
30001090:	e3c33020 	bic	r3, r3, #32
30001094:	e5823054 	str	r3, [r2, #84]	; 0x54
30001098:	e1a0f00e 	mov	pc, lr

3000109c <IRQ_registration>:
3000109c:	e59f3018 	ldr	r3, [pc, #24]	; 300010bc <IRQ_registration+0x20>
300010a0:	e7831100 	str	r1, [r3, r0, lsl #2]
300010a4:	e3a0244a 	mov	r2, #1241513984	; 0x4a000000
300010a8:	e5923008 	ldr	r3, [r2, #8]
300010ac:	e3a01001 	mov	r1, #1
300010b0:	e1c30011 	bic	r0, r3, r1, lsl r0
300010b4:	e5820008 	str	r0, [r2, #8]
300010b8:	e1a0f00e 	mov	pc, lr
300010bc:	30001e78 	andcc	r1, r0, r8, ror lr

300010c0 <IRQ_handler_c>:
300010c0:	e92d4070 	push	{r4, r5, r6, lr}
300010c4:	e3a0444a 	mov	r4, #1241513984	; 0x4a000000
300010c8:	e5945014 	ldr	r5, [r4, #20]
300010cc:	e20500ff 	and	r0, r5, #255	; 0xff
300010d0:	e59f301c 	ldr	r3, [pc, #28]	; 300010f4 <IRQ_handler_c+0x34>
300010d4:	e7933105 	ldr	r3, [r3, r5, lsl #2]
300010d8:	e1a0e00f 	mov	lr, pc
300010dc:	e1a0f003 	mov	pc, r3
300010e0:	e3a03001 	mov	r3, #1
300010e4:	e1a03513 	lsl	r3, r3, r5
300010e8:	e5843000 	str	r3, [r4]
300010ec:	e5843010 	str	r3, [r4, #16]
300010f0:	e8bd8070 	pop	{r4, r5, r6, pc}
300010f4:	30001e78 	andcc	r1, r0, r8, ror lr

300010f8 <printException>:
300010f8:	e92d4010 	push	{r4, lr}
300010fc:	e1a04001 	mov	r4, r1
30001100:	e1a01000 	mov	r1, r0
30001104:	e59f0010 	ldr	r0, [pc, #16]	; 3000111c <printException+0x24>
30001108:	ebfffef7 	bl	30000cec <my_printf>
3000110c:	e1a01004 	mov	r1, r4
30001110:	e59f0008 	ldr	r0, [pc, #8]	; 30001120 <printException+0x28>
30001114:	ebfffef4 	bl	30000cec <my_printf>
30001118:	e8bd8010 	pop	{r4, pc}
3000111c:	30001a00 	andcc	r1, r0, r0, lsl #20
30001120:	30001a0c 	andcc	r1, r0, ip, lsl #20

30001124 <printSWIval>:
30001124:	e92d4010 	push	{r4, lr}
30001128:	e5901000 	ldr	r1, [r0]
3000112c:	e3c114ff 	bic	r1, r1, #-16777216	; 0xff000000
30001130:	e59f0004 	ldr	r0, [pc, #4]	; 3000113c <printSWIval+0x18>
30001134:	ebfffeec 	bl	30000cec <my_printf>
30001138:	e8bd8010 	pop	{r4, pc}
3000113c:	30001a14 	andcc	r1, r0, r4, lsl sl

30001140 <delay>:
30001140:	e24dd008 	sub	sp, sp, #8
30001144:	e58d0004 	str	r0, [sp, #4]
30001148:	e59d3004 	ldr	r3, [sp, #4]
3000114c:	e2432001 	sub	r2, r3, #1
30001150:	e58d2004 	str	r2, [sp, #4]
30001154:	e3530000 	cmp	r3, #0
30001158:	1afffffa 	bne	30001148 <delay+0x8>
3000115c:	e28dd008 	add	sp, sp, #8
30001160:	e1a0f00e 	mov	pc, lr

30001164 <main>:
30001164:	e92d4010 	push	{r4, lr}
30001168:	ebfffc5b 	bl	300002dc <nand_flash_init>
3000116c:	ebfffe00 	bl	30000974 <nand_flash_test>
30001170:	e3a00000 	mov	r0, #0
30001174:	e8bd8010 	pop	{r4, pc}

30001178 <PWM_timer_irq>:
30001178:	e59f2034 	ldr	r2, [pc, #52]	; 300011b4 <PWM_timer_irq+0x3c>
3000117c:	e5923000 	ldr	r3, [r2]
30001180:	e2833001 	add	r3, r3, #1
30001184:	e5823000 	str	r3, [r2]
30001188:	e3a02456 	mov	r2, #1442840576	; 0x56000000
3000118c:	e5921054 	ldr	r1, [r2, #84]	; 0x54
30001190:	e3c11070 	bic	r1, r1, #112	; 0x70
30001194:	e5821054 	str	r1, [r2, #84]	; 0x54
30001198:	e5921054 	ldr	r1, [r2, #84]	; 0x54
3000119c:	e1e03003 	mvn	r3, r3
300011a0:	e1a03203 	lsl	r3, r3, #4
300011a4:	e2033070 	and	r3, r3, #112	; 0x70
300011a8:	e1833001 	orr	r3, r3, r1
300011ac:	e5823054 	str	r3, [r2, #84]	; 0x54
300011b0:	e1a0f00e 	mov	pc, lr
300011b4:	30001e74 	andcc	r1, r0, r4, ror lr

300011b8 <PWM_timer_init>:
300011b8:	e92d4010 	push	{r4, lr}
300011bc:	e3a03451 	mov	r3, #1358954496	; 0x51000000
300011c0:	e3a02063 	mov	r2, #99	; 0x63
300011c4:	e5832000 	str	r2, [r3]
300011c8:	e5932004 	ldr	r2, [r3, #4]
300011cc:	e3c2200f 	bic	r2, r2, #15
300011d0:	e5832004 	str	r2, [r3, #4]
300011d4:	e5932004 	ldr	r2, [r3, #4]
300011d8:	e3822003 	orr	r2, r2, #3
300011dc:	e5832004 	str	r2, [r3, #4]
300011e0:	e59f2040 	ldr	r2, [pc, #64]	; 30001228 <PWM_timer_init+0x70>
300011e4:	e583200c 	str	r2, [r3, #12]
300011e8:	e5932008 	ldr	r2, [r3, #8]
300011ec:	e3822002 	orr	r2, r2, #2
300011f0:	e5832008 	str	r2, [r3, #8]
300011f4:	e5932008 	ldr	r2, [r3, #8]
300011f8:	e3c2200b 	bic	r2, r2, #11
300011fc:	e5832008 	str	r2, [r3, #8]
30001200:	e5932008 	ldr	r2, [r3, #8]
30001204:	e3822008 	orr	r2, r2, #8
30001208:	e5832008 	str	r2, [r3, #8]
3000120c:	e5932008 	ldr	r2, [r3, #8]
30001210:	e3822001 	orr	r2, r2, #1
30001214:	e5832008 	str	r2, [r3, #8]
30001218:	e59f100c 	ldr	r1, [pc, #12]	; 3000122c <PWM_timer_init+0x74>
3000121c:	e3a0000a 	mov	r0, #10
30001220:	ebffff9d 	bl	3000109c <IRQ_registration>
30001224:	e8bd8010 	pop	{r4, pc}
30001228:	00007a12 	andeq	r7, r0, r2, lsl sl
3000122c:	30001178 	andcc	r1, r0, r8, ror r1

30001230 <strlen>:
30001230:	e3c01003 	bic	r1, r0, #3
30001234:	e2100003 	ands	r0, r0, #3
30001238:	e2600000 	rsb	r0, r0, #0
3000123c:	e4913004 	ldr	r3, [r1], #4
30001240:	e280c004 	add	ip, r0, #4
30001244:	e1a0c18c 	lsl	ip, ip, #3
30001248:	e3e02000 	mvn	r2, #0
3000124c:	11833c32 	orrne	r3, r3, r2, lsr ip
30001250:	e3a0c001 	mov	ip, #1
30001254:	e18cc40c 	orr	ip, ip, ip, lsl #8
30001258:	e18cc80c 	orr	ip, ip, ip, lsl #16
3000125c:	e043200c 	sub	r2, r3, ip
30001260:	e1c22003 	bic	r2, r2, r3
30001264:	e012238c 	ands	r2, r2, ip, lsl #7
30001268:	04913004 	ldreq	r3, [r1], #4
3000126c:	02800004 	addeq	r0, r0, #4
30001270:	0afffff9 	beq	3000125c <strlen+0x2c>
30001274:	e31300ff 	tst	r3, #255	; 0xff
30001278:	12800001 	addne	r0, r0, #1
3000127c:	13130cff 	tstne	r3, #65280	; 0xff00
30001280:	12800001 	addne	r0, r0, #1
30001284:	131308ff 	tstne	r3, #16711680	; 0xff0000
30001288:	12800001 	addne	r0, r0, #1
3000128c:	e12fff1e 	bx	lr

30001290 <_strtol_r>:
30001290:	e92d4ff0 	push	{r4, r5, r6, r7, r8, r9, sl, fp, lr}
30001294:	e24dd014 	sub	sp, sp, #20
30001298:	e1a05001 	mov	r5, r1
3000129c:	e58d1008 	str	r1, [sp, #8]
300012a0:	e59f121c 	ldr	r1, [pc, #540]	; 300014c4 <_strtol_r+0x234>
300012a4:	e58d000c 	str	r0, [sp, #12]
300012a8:	e1a0a002 	mov	sl, r2
300012ac:	e1a07003 	mov	r7, r3
300012b0:	e5916000 	ldr	r6, [r1]
300012b4:	ea000000 	b	300012bc <_strtol_r+0x2c>
300012b8:	e1a05003 	mov	r5, r3
300012bc:	e1a03005 	mov	r3, r5
300012c0:	e4d34001 	ldrb	r4, [r3], #1
300012c4:	e0862004 	add	r2, r6, r4
300012c8:	e5d22001 	ldrb	r2, [r2, #1]
300012cc:	e3120008 	tst	r2, #8
300012d0:	1afffff8 	bne	300012b8 <_strtol_r+0x28>
300012d4:	e354002d 	cmp	r4, #45	; 0x2d
300012d8:	0a000046 	beq	300013f8 <_strtol_r+0x168>
300012dc:	e354002b 	cmp	r4, #43	; 0x2b
300012e0:	0a00006b 	beq	30001494 <_strtol_r+0x204>
300012e4:	e3d72010 	bics	r2, r7, #16
300012e8:	e1a05003 	mov	r5, r3
300012ec:	e58d2004 	str	r2, [sp, #4]
300012f0:	0a00005a 	beq	30001460 <_strtol_r+0x1d0>
300012f4:	e3a03000 	mov	r3, #0
300012f8:	e1a0b007 	mov	fp, r7
300012fc:	e3e09102 	mvn	r9, #-2147483648	; 0x80000000
30001300:	e58d3004 	str	r3, [sp, #4]
30001304:	e1a0100b 	mov	r1, fp
30001308:	e1a00009 	mov	r0, r9
3000130c:	eb0000b1 	bl	300015d8 <__aeabi_uidivmod>
30001310:	e1a00009 	mov	r0, r9
30001314:	e1a08001 	mov	r8, r1
30001318:	e1a0100b 	mov	r1, fp
3000131c:	eb000070 	bl	300014e4 <__aeabi_uidiv>
30001320:	e3a0c000 	mov	ip, #0
30001324:	e3e02000 	mvn	r2, #0
30001328:	e1a0300c 	mov	r3, ip
3000132c:	e3a0e001 	mov	lr, #1
30001330:	ea000009 	b	3000135c <_strtol_r+0xcc>
30001334:	e0434000 	sub	r4, r3, r0
30001338:	e274c000 	rsbs	ip, r4, #0
3000133c:	e0acc004 	adc	ip, ip, r4
30001340:	e1510008 	cmp	r1, r8
30001344:	d3a0c000 	movle	ip, #0
30001348:	e35c0000 	cmp	ip, #0
3000134c:	1a000014 	bne	300013a4 <_strtol_r+0x114>
30001350:	e1a0c00e 	mov	ip, lr
30001354:	e023139b 	mla	r3, fp, r3, r1
30001358:	e4d54001 	ldrb	r4, [r5], #1
3000135c:	e0861004 	add	r1, r6, r4
30001360:	e5d11001 	ldrb	r1, [r1, #1]
30001364:	e3110004 	tst	r1, #4
30001368:	12441030 	subne	r1, r4, #48	; 0x30
3000136c:	1a000005 	bne	30001388 <_strtol_r+0xf8>
30001370:	e2111003 	ands	r1, r1, #3
30001374:	0a00000c 	beq	300013ac <_strtol_r+0x11c>
30001378:	e3510001 	cmp	r1, #1
3000137c:	13a01057 	movne	r1, #87	; 0x57
30001380:	03a01037 	moveq	r1, #55	; 0x37
30001384:	e0441001 	sub	r1, r4, r1
30001388:	e1510007 	cmp	r1, r7
3000138c:	aa000006 	bge	300013ac <_strtol_r+0x11c>
30001390:	e1530000 	cmp	r3, r0
30001394:	93a04000 	movls	r4, #0
30001398:	83a04001 	movhi	r4, #1
3000139c:	e194cfac 	orrs	ip, r4, ip, lsr #31
300013a0:	0affffe3 	beq	30001334 <_strtol_r+0xa4>
300013a4:	e1a0c002 	mov	ip, r2
300013a8:	eaffffea 	b	30001358 <_strtol_r+0xc8>
300013ac:	e37c0001 	cmn	ip, #1
300013b0:	0a000023 	beq	30001444 <_strtol_r+0x1b4>
300013b4:	e59d2004 	ldr	r2, [sp, #4]
300013b8:	e3520000 	cmp	r2, #0
300013bc:	12633000 	rsbne	r3, r3, #0
300013c0:	e35a0000 	cmp	sl, #0
300013c4:	0a000003 	beq	300013d8 <_strtol_r+0x148>
300013c8:	e35c0000 	cmp	ip, #0
300013cc:	059d5008 	ldreq	r5, [sp, #8]
300013d0:	1a000004 	bne	300013e8 <_strtol_r+0x158>
300013d4:	e58a5000 	str	r5, [sl]
300013d8:	e1a00003 	mov	r0, r3
300013dc:	e28dd014 	add	sp, sp, #20
300013e0:	e8bd4ff0 	pop	{r4, r5, r6, r7, r8, r9, sl, fp, lr}
300013e4:	e12fff1e 	bx	lr
300013e8:	e1a09003 	mov	r9, r3
300013ec:	e2455001 	sub	r5, r5, #1
300013f0:	e1a03009 	mov	r3, r9
300013f4:	eafffff6 	b	300013d4 <_strtol_r+0x144>
300013f8:	e2772001 	rsbs	r2, r7, #1
300013fc:	33a02000 	movcc	r2, #0
30001400:	e3d71010 	bics	r1, r7, #16
30001404:	e5d34000 	ldrb	r4, [r3]
30001408:	03a03001 	moveq	r3, #1
3000140c:	e2855002 	add	r5, r5, #2
30001410:	058d3004 	streq	r3, [sp, #4]
30001414:	1a000025 	bne	300014b0 <_strtol_r+0x220>
30001418:	e3540030 	cmp	r4, #48	; 0x30
3000141c:	0a000013 	beq	30001470 <_strtol_r+0x1e0>
30001420:	e3520000 	cmp	r2, #0
30001424:	0a00001f 	beq	300014a8 <_strtol_r+0x218>
30001428:	e3a0700a 	mov	r7, #10
3000142c:	e1a0b007 	mov	fp, r7
30001430:	e59d3004 	ldr	r3, [sp, #4]
30001434:	e3530000 	cmp	r3, #0
30001438:	13a09102 	movne	r9, #-2147483648	; 0x80000000
3000143c:	03e09102 	mvneq	r9, #-2147483648	; 0x80000000
30001440:	eaffffaf 	b	30001304 <_strtol_r+0x74>
30001444:	e3a03022 	mov	r3, #34	; 0x22
30001448:	e59d200c 	ldr	r2, [sp, #12]
3000144c:	e35a0000 	cmp	sl, #0
30001450:	e5823000 	str	r3, [r2]
30001454:	01a03009 	moveq	r3, r9
30001458:	1affffe3 	bne	300013ec <_strtol_r+0x15c>
3000145c:	eaffffdd 	b	300013d8 <_strtol_r+0x148>
30001460:	e2772001 	rsbs	r2, r7, #1
30001464:	33a02000 	movcc	r2, #0
30001468:	e3540030 	cmp	r4, #48	; 0x30
3000146c:	1affffeb 	bne	30001420 <_strtol_r+0x190>
30001470:	e5d53000 	ldrb	r3, [r5]
30001474:	e20330df 	and	r3, r3, #223	; 0xdf
30001478:	e3530058 	cmp	r3, #88	; 0x58
3000147c:	1a000007 	bne	300014a0 <_strtol_r+0x210>
30001480:	e3a07010 	mov	r7, #16
30001484:	e5d54001 	ldrb	r4, [r5, #1]
30001488:	e1a0b007 	mov	fp, r7
3000148c:	e2855002 	add	r5, r5, #2
30001490:	eaffffe6 	b	30001430 <_strtol_r+0x1a0>
30001494:	e5d34000 	ldrb	r4, [r3]
30001498:	e2853002 	add	r3, r5, #2
3000149c:	eaffff90 	b	300012e4 <_strtol_r+0x54>
300014a0:	e3520000 	cmp	r2, #0
300014a4:	13a07008 	movne	r7, #8
300014a8:	e1a0b007 	mov	fp, r7
300014ac:	eaffffdf 	b	30001430 <_strtol_r+0x1a0>
300014b0:	e3a03001 	mov	r3, #1
300014b4:	e1a0b007 	mov	fp, r7
300014b8:	e58d3004 	str	r3, [sp, #4]
300014bc:	e3a09102 	mov	r9, #-2147483648	; 0x80000000
300014c0:	eaffff8f 	b	30001304 <_strtol_r+0x74>
300014c4:	30001a3c 	andcc	r1, r0, ip, lsr sl

300014c8 <strtol>:
300014c8:	e59fc010 	ldr	ip, [pc, #16]	; 300014e0 <strtol+0x18>
300014cc:	e1a03002 	mov	r3, r2
300014d0:	e1a02001 	mov	r2, r1
300014d4:	e1a01000 	mov	r1, r0
300014d8:	e59c0000 	ldr	r0, [ip]
300014dc:	eaffff6b 	b	30001290 <_strtol_r>
300014e0:	30001a40 	andcc	r1, r0, r0, asr #20

300014e4 <__aeabi_uidiv>:
300014e4:	e2512001 	subs	r2, r1, #1
300014e8:	012fff1e 	bxeq	lr
300014ec:	3a000036 	bcc	300015cc <__aeabi_uidiv+0xe8>
300014f0:	e1500001 	cmp	r0, r1
300014f4:	9a000022 	bls	30001584 <__aeabi_uidiv+0xa0>
300014f8:	e1110002 	tst	r1, r2
300014fc:	0a000023 	beq	30001590 <__aeabi_uidiv+0xac>
30001500:	e311020e 	tst	r1, #-536870912	; 0xe0000000
30001504:	01a01181 	lsleq	r1, r1, #3
30001508:	03a03008 	moveq	r3, #8
3000150c:	13a03001 	movne	r3, #1
30001510:	e3510201 	cmp	r1, #268435456	; 0x10000000
30001514:	31510000 	cmpcc	r1, r0
30001518:	31a01201 	lslcc	r1, r1, #4
3000151c:	31a03203 	lslcc	r3, r3, #4
30001520:	3afffffa 	bcc	30001510 <__aeabi_uidiv+0x2c>
30001524:	e3510102 	cmp	r1, #-2147483648	; 0x80000000
30001528:	31510000 	cmpcc	r1, r0
3000152c:	31a01081 	lslcc	r1, r1, #1
30001530:	31a03083 	lslcc	r3, r3, #1
30001534:	3afffffa 	bcc	30001524 <__aeabi_uidiv+0x40>
30001538:	e3a02000 	mov	r2, #0
3000153c:	e1500001 	cmp	r0, r1
30001540:	20400001 	subcs	r0, r0, r1
30001544:	21822003 	orrcs	r2, r2, r3
30001548:	e15000a1 	cmp	r0, r1, lsr #1
3000154c:	204000a1 	subcs	r0, r0, r1, lsr #1
30001550:	218220a3 	orrcs	r2, r2, r3, lsr #1
30001554:	e1500121 	cmp	r0, r1, lsr #2
30001558:	20400121 	subcs	r0, r0, r1, lsr #2
3000155c:	21822123 	orrcs	r2, r2, r3, lsr #2
30001560:	e15001a1 	cmp	r0, r1, lsr #3
30001564:	204001a1 	subcs	r0, r0, r1, lsr #3
30001568:	218221a3 	orrcs	r2, r2, r3, lsr #3
3000156c:	e3500000 	cmp	r0, #0
30001570:	11b03223 	lsrsne	r3, r3, #4
30001574:	11a01221 	lsrne	r1, r1, #4
30001578:	1affffef 	bne	3000153c <__aeabi_uidiv+0x58>
3000157c:	e1a00002 	mov	r0, r2
30001580:	e12fff1e 	bx	lr
30001584:	03a00001 	moveq	r0, #1
30001588:	13a00000 	movne	r0, #0
3000158c:	e12fff1e 	bx	lr
30001590:	e3510801 	cmp	r1, #65536	; 0x10000
30001594:	21a01821 	lsrcs	r1, r1, #16
30001598:	23a02010 	movcs	r2, #16
3000159c:	33a02000 	movcc	r2, #0
300015a0:	e3510c01 	cmp	r1, #256	; 0x100
300015a4:	21a01421 	lsrcs	r1, r1, #8
300015a8:	22822008 	addcs	r2, r2, #8
300015ac:	e3510010 	cmp	r1, #16
300015b0:	21a01221 	lsrcs	r1, r1, #4
300015b4:	22822004 	addcs	r2, r2, #4
300015b8:	e3510004 	cmp	r1, #4
300015bc:	82822003 	addhi	r2, r2, #3
300015c0:	908220a1 	addls	r2, r2, r1, lsr #1
300015c4:	e1a00230 	lsr	r0, r0, r2
300015c8:	e12fff1e 	bx	lr
300015cc:	e3500000 	cmp	r0, #0
300015d0:	13e00000 	mvnne	r0, #0
300015d4:	ea000007 	b	300015f8 <__aeabi_idiv0>

300015d8 <__aeabi_uidivmod>:
300015d8:	e3510000 	cmp	r1, #0
300015dc:	0afffffa 	beq	300015cc <__aeabi_uidiv+0xe8>
300015e0:	e92d4003 	push	{r0, r1, lr}
300015e4:	ebffffbe 	bl	300014e4 <__aeabi_uidiv>
300015e8:	e8bd4006 	pop	{r1, r2, lr}
300015ec:	e0030092 	mul	r3, r2, r0
300015f0:	e0411003 	sub	r1, r1, r3
300015f4:	e12fff1e 	bx	lr

300015f8 <__aeabi_idiv0>:
300015f8:	e12fff1e 	bx	lr

Disassembly of section .rodata:

300015fc <_ctype_>:
300015fc:	20202000 	eorcs	r2, r0, r0
30001600:	20202020 	eorcs	r2, r0, r0, lsr #32
30001604:	28282020 	stmdacs	r8!, {r5, sp}
30001608:	20282828 	eorcs	r2, r8, r8, lsr #16
3000160c:	20202020 	eorcs	r2, r0, r0, lsr #32
30001610:	20202020 	eorcs	r2, r0, r0, lsr #32
30001614:	20202020 	eorcs	r2, r0, r0, lsr #32
30001618:	20202020 	eorcs	r2, r0, r0, lsr #32
3000161c:	10108820 	andsne	r8, r0, r0, lsr #16
30001620:	10101010 	andsne	r1, r0, r0, lsl r0
30001624:	10101010 	andsne	r1, r0, r0, lsl r0
30001628:	10101010 	andsne	r1, r0, r0, lsl r0
3000162c:	04040410 	streq	r0, [r4], #-1040	; 0xfffffbf0
30001630:	04040404 	streq	r0, [r4], #-1028	; 0xfffffbfc
30001634:	10040404 	andne	r0, r4, r4, lsl #8
30001638:	10101010 	andsne	r1, r0, r0, lsl r0
3000163c:	41411010 	cmpmi	r1, r0, lsl r0
30001640:	41414141 	cmpmi	r1, r1, asr #2
30001644:	01010101 	tsteq	r1, r1, lsl #2
30001648:	01010101 	tsteq	r1, r1, lsl #2
3000164c:	01010101 	tsteq	r1, r1, lsl #2
30001650:	01010101 	tsteq	r1, r1, lsl #2
30001654:	01010101 	tsteq	r1, r1, lsl #2
30001658:	10101010 	andsne	r1, r0, r0, lsl r0
3000165c:	42421010 	submi	r1, r2, #16
30001660:	42424242 	submi	r4, r2, #536870916	; 0x20000004
30001664:	02020202 	andeq	r0, r2, #536870912	; 0x20000000
30001668:	02020202 	andeq	r0, r2, #536870912	; 0x20000000
3000166c:	02020202 	andeq	r0, r2, #536870912	; 0x20000000
30001670:	02020202 	andeq	r0, r2, #536870912	; 0x20000000
30001674:	02020202 	andeq	r0, r2, #536870912	; 0x20000000
30001678:	10101010 	andsne	r1, r0, r0, lsl r0
3000167c:	00000020 	andeq	r0, r0, r0, lsr #32
	...

30001700 <_global_impure_ptr>:
30001700:	30001a48 	andcc	r1, r0, r8, asr #20

Disassembly of section .rodata.str1.4:

30001704 <.rodata.str1.4>:
30001704:	656b614d 	strbvs	r6, [fp, #-333]!	; 0xfffffeb3
30001708:	6f632072 	svcvs	0x00632072
3000170c:	3d206564 	cfstr32cc	mvfx6, [r0, #-400]!	; 0xfffffe70
30001710:	25783020 	ldrbcs	r3, [r8, #-32]!	; 0xffffffe0
30001714:	0d0a2078 	stceq	0, cr2, [sl, #-480]	; 0xfffffe20
30001718:	00000000 	andeq	r0, r0, r0
3000171c:	69766544 	ldmdbvs	r6!, {r2, r6, r8, sl, sp, lr}^
30001720:	49206563 	stmdbmi	r0!, {r0, r1, r5, r6, r8, sl, sp, lr}
30001724:	203d2044 	eorscs	r2, sp, r4, asr #32
30001728:	78257830 	stmdavc	r5!, {r4, r5, fp, ip, sp, lr}
3000172c:	000d0a20 	andeq	r0, sp, r0, lsr #20
30001730:	65746e49 	ldrbvs	r6, [r4, #-3657]!	; 0xfffff1b7
30001734:	6c616e72 	stclvs	14, cr6, [r1], #-456	; 0xfffffe38
30001738:	69686320 	stmdbvs	r8!, {r5, r8, r9, sp, lr}^
3000173c:	756e2070 	strbvc	r2, [lr, #-112]!	; 0xffffff90
30001740:	7265626d 	rsbvc	r6, r5, #-805306362	; 0xd0000006
30001744:	25203d20 	strcs	r3, [r0, #-3360]!	; 0xfffff2e0
30001748:	0d0a2064 	stceq	0, cr2, [sl, #-400]	; 0xfffffe70
3000174c:	00000000 	andeq	r0, r0, r0
30001750:	6c6c6543 	cfstr64vs	mvdx6, [ip], #-268	; 0xfffffef4
30001754:	70797420 	rsbsvc	r7, r9, r0, lsr #8
30001758:	203d2065 	eorscs	r2, sp, r5, rrx
3000175c:	4c206425 	cfstrsmi	mvf6, [r0], #-148	; 0xffffff6c
30001760:	6c657665 	stclvs	6, cr7, [r5], #-404	; 0xfffffe6c
30001764:	6c656320 	stclvs	3, cr6, [r5], #-128	; 0xffffff80
30001768:	000d0a6c 	andeq	r0, sp, ip, ror #20
3000176c:	626d754e 	rsbvs	r7, sp, #327155712	; 0x13800000
30001770:	6f207265 	svcvs	0x00207265
30001774:	69532066 	ldmdbvs	r3, {r1, r2, r5, r6, sp}^
30001778:	746c756d 	strbtvc	r7, [ip], #-1389	; 0xfffffa93
3000177c:	6f656e61 	svcvs	0x00656e61
30001780:	796c7375 	stmdbvc	ip!, {r0, r2, r4, r5, r6, r8, r9, ip, sp, lr}^
30001784:	6f725020 	svcvs	0x00725020
30001788:	6d617267 	sfmvs	f7, 2, [r1, #-412]!	; 0xfffffe64
3000178c:	2064656d 	rsbcs	r6, r4, sp, ror #10
30001790:	65676150 	strbvs	r6, [r7, #-336]!	; 0xfffffeb0
30001794:	203d2073 	eorscs	r2, sp, r3, ror r0
30001798:	0d0a6425 	cfstrseq	mvf6, [sl, #-148]	; 0xffffff6c
3000179c:	00000000 	andeq	r0, r0, r0
300017a0:	65676150 	strbvs	r6, [r7, #-336]!	; 0xfffffeb0
300017a4:	69732073 	ldmdbvs	r3!, {r0, r1, r4, r5, r6, sp}^
300017a8:	203d657a 	eorscs	r6, sp, sl, ror r5
300017ac:	4b206425 	blmi	3081a848 <_end+0x818950>
300017b0:	000d0a42 	andeq	r0, sp, r2, asr #20
300017b4:	636f6c42 	cmnvs	pc, #16896	; 0x4200
300017b8:	6973206b 	ldmdbvs	r3!, {r0, r1, r3, r5, r6, sp}^
300017bc:	3d20657a 	cfstr32cc	mvfx6, [r0, #-488]!	; 0xfffffe18
300017c0:	20642520 	rsbcs	r2, r4, r0, lsr #10
300017c4:	0d0a424b 	sfmeq	f4, 4, [sl, #-300]	; 0xfffffed4
300017c8:	00000000 	andeq	r0, r0, r0
300017cc:	75646552 	strbvc	r6, [r4, #-1362]!	; 0xfffffaae
300017d0:	6e61646e 	cdpvs	4, 6, cr6, cr1, cr14, {3}
300017d4:	72412074 	subvc	r2, r1, #116	; 0x74
300017d8:	53206165 			; <UNDEFINED> instruction: 0x53206165
300017dc:	20657a69 	rsbcs	r7, r5, r9, ror #20
300017e0:	6425203d 	strtvs	r2, [r5], #-61	; 0xffffffc3
300017e4:	74796220 	ldrbtvc	r6, [r9], #-544	; 0xfffffde0
300017e8:	000d0a65 	andeq	r0, sp, r5, ror #20
300017ec:	6167724f 	cmnvs	r7, pc, asr #4
300017f0:	617a696e 	cmnvs	sl, lr, ror #18
300017f4:	6e6f6974 			; <UNDEFINED> instruction: 0x6e6f6974
300017f8:	78203d20 	stmdavc	r0!, {r5, r8, sl, fp, ip, sp}
300017fc:	0d0a6425 	cfstrseq	mvf6, [sl, #-148]	; 0xffffff6c
30001800:	00000000 	andeq	r0, r0, r0
30001804:	69726553 	ldmdbvs	r2!, {r0, r1, r4, r6, r8, sl, sp, lr}^
30001808:	41206c61 			; <UNDEFINED> instruction: 0x41206c61
3000180c:	73656363 	cmnvc	r5, #-1946157055	; 0x8c000001
30001810:	694d2073 	stmdbvs	sp, {r0, r1, r4, r5, r6, sp}^
30001814:	756d696e 	strbvc	r6, [sp, #-2414]!	; 0xfffff692
30001818:	203d206d 	eorscs	r2, sp, sp, rrx
3000181c:	0d0a7825 	stceq	8, cr7, [sl, #-148]	; 0xffffff6c
30001820:	00000000 	andeq	r0, r0, r0
30001824:	20746553 	rsbscs	r6, r4, r3, asr r5
30001828:	61206e61 			; <UNDEFINED> instruction: 0x61206e61
3000182c:	65726464 	ldrbvs	r6, [r2, #-1124]!	; 0xfffffb9c
30001830:	74207373 	strtvc	r7, [r0], #-883	; 0xfffffc8d
30001834:	6572206f 	ldrbvs	r2, [r2, #-111]!	; 0xffffff91
30001838:	66206461 	strtvs	r6, [r0], -r1, ror #8
3000183c:	3a6d6f72 	bcc	31b5d60c <_end+0x1b5b714>
30001840:	00000000 	andeq	r0, r0, r0
30001844:	78323025 	ldmdavc	r2!, {r0, r2, r5, ip, sp}
30001848:	00000020 	andeq	r0, r0, r0, lsr #32
3000184c:	00207c20 	eoreq	r7, r0, r0, lsr #24
30001850:	00000a0d 	andeq	r0, r0, sp, lsl #20
30001854:	61656c50 	cmnvs	r5, r0, asr ip
30001858:	65206573 	strvs	r6, [r0, #-1395]!	; 0xfffffa8d
3000185c:	7265746e 	rsbvc	r7, r5, #1845493760	; 0x6e000000
30001860:	206e6120 	rsbcs	r6, lr, r0, lsr #2
30001864:	67696c61 	strbvs	r6, [r9, -r1, ror #24]!
30001868:	2064656e 	rsbcs	r6, r4, lr, ror #10
3000186c:	636f6c62 	cmnvs	pc, #25088	; 0x6200
30001870:	6461206b 	strbtvs	r2, [r1], #-107	; 0xffffff95
30001874:	73657264 	cmnvc	r5, #100, 4	; 0x40000006
30001878:	6f202c73 	svcvs	0x00202c73
3000187c:	20612072 	rsbcs	r2, r1, r2, ror r0
30001880:	72726f63 	rsbsvc	r6, r2, #396	; 0x18c
30001884:	20746365 	rsbscs	r6, r4, r5, ror #6
30001888:	636f6c62 	cmnvs	pc, #25088	; 0x6200
3000188c:	656c206b 	strbvs	r2, [ip, #-107]!	; 0xffffff95
30001890:	6874676e 	ldmdavs	r4!, {r1, r2, r3, r5, r6, r8, r9, sl, sp, lr}^
30001894:	0a0d202e 	beq	30349954 <_end+0x347a5c>
30001898:	00000000 	andeq	r0, r0, r0
3000189c:	20747542 	rsbscs	r7, r4, r2, asr #10
300018a0:	74796e61 	ldrbtvc	r6, [r9], #-3681	; 0xfffff19f
300018a4:	676e6968 	strbvs	r6, [lr, -r8, ror #18]!
300018a8:	74697720 	strbtvc	r7, [r9], #-1824	; 0xfffff8e0
300018ac:	206e6968 	rsbcs	r6, lr, r8, ror #18
300018b0:	73696874 	cmnvc	r9, #116, 16	; 0x740000
300018b4:	6f6c6220 	svcvs	0x006c6220
300018b8:	77206b63 	strvc	r6, [r0, -r3, ror #22]!
300018bc:	206c6c69 	rsbcs	r6, ip, r9, ror #24
300018c0:	65206562 	strvs	r6, [r0, #-1378]!	; 0xfffffa9e
300018c4:	65736172 	ldrbvs	r6, [r3, #-370]!	; 0xfffffe8e
300018c8:	305b2e64 	subscc	r2, fp, r4, ror #28
300018cc:	38302578 	ldmdacc	r0!, {r3, r4, r5, r6, r8, sl, sp}
300018d0:	30202c78 	eorcc	r2, r0, r8, ror ip
300018d4:	38302578 	ldmdacc	r0!, {r3, r4, r5, r6, r8, sl, sp}
300018d8:	0d205d78 	stceq	13, cr5, [r0, #-480]!	; 0xfffffe20
300018dc:	0000000a 	andeq	r0, r0, sl
300018e0:	656c6553 	strbvs	r6, [ip, #-1363]!	; 0xfffffaad
300018e4:	6f207463 	svcvs	0x00207463
300018e8:	6220656e 	eorvs	r6, r0, #461373440	; 0x1b800000
300018ec:	6b636f6c 	blvs	318dd6a4 <_end+0x18db7ac>
300018f0:	206f7420 	rsbcs	r7, pc, r0, lsr #8
300018f4:	65206562 	strvs	r6, [r0, #-1378]!	; 0xfffffa9e
300018f8:	65736172 	ldrbvs	r6, [r3, #-370]!	; 0xfffffe8e
300018fc:	62282064 	eorvs	r2, r8, #100	; 0x64
30001900:	6e696765 	cdpvs	7, 6, cr6, cr9, cr5, {3}
30001904:	676e696e 	strbvs	r6, [lr, -lr, ror #18]!
30001908:	64646120 	strbtvs	r6, [r4], #-288	; 0xfffffee0
3000190c:	73736572 	cmnvc	r3, #478150656	; 0x1c800000
30001910:	20666f20 	rsbcs	r6, r6, r0, lsr #30
30001914:	6c622061 	stclvs	0, cr2, [r2], #-388	; 0xfffffe7c
30001918:	296b636f 	stmdbcs	fp!, {r0, r1, r2, r3, r5, r6, r8, r9, sp, lr}^
3000191c:	0000003a 	andeq	r0, r0, sl, lsr r0
30001920:	656e6f44 	strbvs	r6, [lr, #-3908]!	; 0xfffff0bc
30001924:	0a0d202e 	beq	303499e4 <_end+0x347aec>
30001928:	00000000 	andeq	r0, r0, r0
3000192c:	65746e45 	ldrbvs	r6, [r4, #-3653]!	; 0xfffff1bb
30001930:	6e612072 	mcrvs	0, 3, r2, cr1, cr2, {3}
30001934:	64646120 	strbtvs	r6, [r4], #-288	; 0xfffffee0
30001938:	73736572 	cmnvc	r3, #478150656	; 0x1c800000
3000193c:	206f7420 	rsbcs	r7, pc, r0, lsr #8
30001940:	77206562 	strvc	r6, [r0, -r2, ror #10]!
30001944:	74746972 	ldrbtvc	r6, [r4], #-2418	; 0xfffff68e
30001948:	003a6e65 	eorseq	r6, sl, r5, ror #28
3000194c:	65746e45 	ldrbvs	r6, [r4, #-3653]!	; 0xfffff1bb
30001950:	61642072 	smcvs	16898	; 0x4202
30001954:	74206174 	strtvc	r6, [r0], #-372	; 0xfffffe8c
30001958:	6562206f 	strbvs	r2, [r2, #-111]!	; 0xffffff91
3000195c:	69727720 	ldmdbvs	r2!, {r5, r8, r9, sl, ip, sp, lr}^
30001960:	6e657474 	mcrvs	4, 3, r7, cr5, cr4, {3}
30001964:	0000203a 	andeq	r2, r0, sl, lsr r0
30001968:	205d735b 	subscs	r7, sp, fp, asr r3
3000196c:	6e616353 	mcrvs	3, 3, r6, cr1, cr3, {2}
30001970:	4e414e20 	cdpmi	14, 4, cr4, cr1, cr0, {1}
30001974:	6c662044 	stclvs	0, cr2, [r6], #-272	; 0xfffffef0
30001978:	0a687361 	beq	31a1e704 <_end+0x1a1c80c>
3000197c:	0000000d 	andeq	r0, r0, sp
30001980:	205d655b 	subscs	r6, sp, fp, asr r5
30001984:	73617245 	cmnvc	r1, #1342177284	; 0x50000004
30001988:	414e2065 	cmpmi	lr, r5, rrx
3000198c:	6620444e 	strtvs	r4, [r0], -lr, asr #8
30001990:	6873616c 	ldmdavs	r3!, {r2, r3, r5, r6, r8, sp, lr}^
30001994:	6c622820 	stclvs	8, cr2, [r2], #-128	; 0xffffff80
30001998:	296b636f 	stmdbcs	fp!, {r0, r1, r2, r3, r5, r6, r8, r9, sp, lr}^
3000199c:	00000d0a 	andeq	r0, r0, sl, lsl #26
300019a0:	205d775b 	subscs	r7, sp, fp, asr r7
300019a4:	74697257 	strbtvc	r7, [r9], #-599	; 0xfffffda9
300019a8:	414e2065 	cmpmi	lr, r5, rrx
300019ac:	6620444e 	strtvs	r4, [r0], -lr, asr #8
300019b0:	6873616c 	ldmdavs	r3!, {r2, r3, r5, r6, r8, sp, lr}^
300019b4:	00000d0a 	andeq	r0, r0, sl, lsl #26
300019b8:	205d725b 	subscs	r7, sp, fp, asr r2
300019bc:	64616552 	strbtvs	r6, [r1], #-1362	; 0xfffffaae
300019c0:	4e414e20 	cdpmi	14, 4, cr4, cr1, cr0, {1}
300019c4:	6c662044 	stclvs	0, cr2, [r6], #-272	; 0xfffffef0
300019c8:	0a687361 	beq	31a1e754 <_end+0x1a1c85c>
300019cc:	0000000d 	andeq	r0, r0, sp
300019d0:	205d715b 	subscs	r7, sp, fp, asr r1
300019d4:	74697845 	strbtvc	r7, [r9], #-2117	; 0xfffff7bb
300019d8:	00000d0a 	andeq	r0, r0, sl, lsl #26
300019dc:	656c6553 	strbvs	r6, [ip, #-1363]!	; 0xfffffaad
300019e0:	6f697463 	svcvs	0x00697463
300019e4:	00203a6e 	eoreq	r3, r0, lr, ror #20
300019e8:	0d0a6325 	stceq	3, cr6, [sl, #-148]	; 0xffffff6c
300019ec:	00000000 	andeq	r0, r0, r0
300019f0:	54534554 	ldrbpl	r4, [r3], #-1364	; 0xfffffaac
300019f4:	000d0a31 	andeq	r0, sp, r1, lsr sl
300019f8:	54534554 	ldrbpl	r4, [r3], #-1364	; 0xfffffaac
300019fc:	000d0a32 	andeq	r0, sp, r2, lsr sl
30001a00:	52535043 	subspl	r5, r3, #67	; 0x43
30001a04:	0a78253d 	beq	31e0af00 <_end+0x1e09008>
30001a08:	0000000d 	andeq	r0, r0, sp
30001a0c:	0d0a7325 	stceq	3, cr7, [sl, #-148]	; 0xffffff6c
30001a10:	00000000 	andeq	r0, r0, r0
30001a14:	3d495753 	stclcc	7, cr5, [r9, #-332]	; 0xfffffeb4
30001a18:	78257830 	stmdavc	r5!, {r4, r5, fp, ip, sp, lr}
30001a1c:	00000d0a 	andeq	r0, r0, sl, lsl #26
30001a20:	00000043 	andeq	r0, r0, r3, asr #32

Disassembly of section .data:

30001a28 <hex_tab>:
30001a28:	33323130 	teqcc	r2, #48, 2
30001a2c:	37363534 			; <UNDEFINED> instruction: 0x37363534
30001a30:	62613938 	rsbvs	r3, r1, #56, 18	; 0xe0000
30001a34:	66656463 	strbtvs	r6, [r5], -r3, ror #8

30001a38 <Global_Char_1>:
30001a38:	00004263 	andeq	r4, r0, r3, ror #4

30001a39 <Global_Char_0>:
30001a39:	fc000042 	stc2	0, cr0, [r0], {66}	; 0x42

30001a3c <__ctype_ptr__>:
30001a3c:	300015fc 	strdcc	r1, [r0], -ip

30001a40 <_impure_ptr>:
30001a40:	30001a48 	andcc	r1, r0, r8, asr #20
30001a44:	00000000 	andeq	r0, r0, r0

30001a48 <impure_data>:
30001a48:	00000000 	andeq	r0, r0, r0
30001a4c:	30001d34 	andcc	r1, r0, r4, lsr sp
30001a50:	30001d9c 	mulcc	r0, ip, sp
30001a54:	30001e04 	andcc	r1, r0, r4, lsl #28
	...
30001a7c:	30001a20 	andcc	r1, r0, r0, lsr #20
	...
30001af0:	00000001 	andeq	r0, r0, r1
30001af4:	00000000 	andeq	r0, r0, r0
30001af8:	abcd330e 	blge	2f34e738 <__code_start-0xcb18c8>
30001afc:	e66d1234 			; <UNDEFINED> instruction: 0xe66d1234
30001b00:	0005deec 	andeq	sp, r5, ip, ror #29
30001b04:	0000000b 	andeq	r0, r0, fp
	...

Disassembly of section .bss:

30001e70 <Global_Char_2>:
30001e70:	00000000 	andeq	r0, r0, r0

30001e74 <cnt.4130>:
30001e74:	00000000 	andeq	r0, r0, r0

30001e78 <irq_array>:
	...

Disassembly of section .ARM.attributes:

00000000 <.ARM.attributes>:
   0:	00002b41 	andeq	r2, r0, r1, asr #22
   4:	61656100 	cmnvs	r5, r0, lsl #2
   8:	01006962 	tsteq	r0, r2, ror #18
   c:	00000021 	andeq	r0, r0, r1, lsr #32
  10:	4d524105 	ldfmie	f4, [r2, #-20]	; 0xffffffec
  14:	4d445437 	cfstrdmi	mvd5, [r4, #-220]	; 0xffffff24
  18:	02060049 	andeq	r0, r6, #73	; 0x49
  1c:	01090108 	tsteq	r9, r8, lsl #2
  20:	01140412 	tsteq	r4, r2, lsl r4
  24:	03170115 	tsteq	r7, #1073741829	; 0x40000005
  28:	011a0118 	tsteq	sl, r8, lsl r1

Disassembly of section .comment:

00000000 <.comment>:
   0:	3a434347 	bcc	10d0d24 <__code_start-0x2ef2f2dc>
   4:	35312820 	ldrcc	r2, [r1, #-2080]!	; 0xfffff7e0
   8:	332e363a 			; <UNDEFINED> instruction: 0x332e363a
   c:	732b312e 			; <UNDEFINED> instruction: 0x732b312e
  10:	35326e76 	ldrcc	r6, [r2, #-3702]!	; 0xfffff18a
  14:	39333033 	ldmdbcc	r3!, {r0, r1, r4, r5, ip, sp}
  18:	7562312d 	strbvc	r3, [r2, #-301]!	; 0xfffffed3
  1c:	31646c69 	cmncc	r4, r9, ror #24
  20:	2e362029 	cdpcs	0, 3, cr2, cr6, cr9, {1}
  24:	20312e33 	eorscs	r2, r1, r3, lsr lr
  28:	37313032 			; <UNDEFINED> instruction: 0x37313032
  2c:	30323630 	eorscc	r3, r2, r0, lsr r6
	...

Disassembly of section .debug_info:

00000000 <.debug_info>:
       0:	000008b2 			; <UNDEFINED> instruction: 0x000008b2
       4:	00000004 	andeq	r0, r0, r4
       8:	01040000 	mrseq	r0, (UNDEF: 4)
       c:	00000251 	andeq	r0, r0, r1, asr r2
      10:	0002a90c 	andeq	sl, r2, ip, lsl #18
      14:	0001ec00 	andeq	lr, r1, r0, lsl #24
	...
      24:	05040200 	streq	r0, [r4, #-512]	; 0xfffffe00
      28:	00746e69 	rsbseq	r6, r4, r9, ror #28
      2c:	00001203 	andeq	r1, r0, r3, lsl #4
      30:	37d80200 	ldrbcc	r0, [r8, r0, lsl #4]
      34:	04000000 	streq	r0, [r0], #-0
      38:	00560704 	subseq	r0, r6, r4, lsl #14
      3c:	08040000 	stmdaeq	r4, {}	; <UNPREDICTABLE>
      40:	00009205 	andeq	r9, r0, r5, lsl #4
      44:	04080400 	streq	r0, [r8], #-1024	; 0xfffffc00
      48:	00000296 	muleq	r0, r6, r2
      4c:	22060104 	andcs	r0, r6, #4, 2
      50:	04000003 	streq	r0, [r0], #-3
      54:	03200801 			; <UNDEFINED> instruction: 0x03200801
      58:	02040000 	andeq	r0, r4, #0
      5c:	00033c05 	andeq	r3, r3, r5, lsl #24
      60:	07020400 	streq	r0, [r2, -r0, lsl #8]
      64:	0000019b 	muleq	r0, fp, r1
      68:	97050404 	strls	r0, [r5, -r4, lsl #8]
      6c:	04000000 	streq	r0, [r0], #-0
      70:	00510704 	subseq	r0, r1, r4, lsl #14
      74:	08040000 	stmdaeq	r4, {}	; <UNPREDICTABLE>
      78:	00004c07 	andeq	r4, r0, r7, lsl #24
      7c:	030e0300 	movweq	r0, #58112	; 0xe300
      80:	07030000 	streq	r0, [r3, -r0]
      84:	00000025 	andeq	r0, r0, r5, lsr #32
      88:	0002fd03 	andeq	pc, r2, r3, lsl #26
      8c:	682c0400 	stmdavs	ip!, {sl}
      90:	03000000 	movweq	r0, #0
      94:	000003e7 	andeq	r0, r0, r7, ror #7
      98:	00687204 	rsbeq	r7, r8, r4, lsl #4
      9c:	e5050000 	str	r0, [r5, #-0]
      a0:	02000001 	andeq	r0, r0, #1
      a4:	00370165 	eorseq	r0, r7, r5, ror #2
      a8:	04060000 	streq	r0, [r6], #-0
      ac:	00c9a604 	sbceq	sl, r9, r4, lsl #12
      b0:	df070000 	svcle	0x00070000
      b4:	04000001 	streq	r0, [r0], #-1
      b8:	00009ea8 	andeq	r9, r0, r8, lsr #29
      bc:	01770700 	cmneq	r7, r0, lsl #14
      c0:	a9040000 	stmdbge	r4, {}	; <UNPREDICTABLE>
      c4:	000000c9 	andeq	r0, r0, r9, asr #1
      c8:	00530800 	subseq	r0, r3, r0, lsl #16
      cc:	00d90000 	sbcseq	r0, r9, r0
      d0:	d9090000 	stmdble	r9, {}	; <UNPREDICTABLE>
      d4:	03000000 	movweq	r0, #0
      d8:	07040400 	streq	r0, [r4, -r0, lsl #8]
      dc:	0000028d 	andeq	r0, r0, sp, lsl #5
      e0:	a304080a 	movwge	r0, #18442	; 0x480a
      e4:	00000101 	andeq	r0, r0, r1, lsl #2
      e8:	0003d10b 	andeq	sp, r3, fp, lsl #2
      ec:	25a50400 	strcs	r0, [r5, #1024]!	; 0x400
      f0:	00000000 	andeq	r0, r0, r0
      f4:	0003d90b 	andeq	sp, r3, fp, lsl #18
      f8:	aaaa0400 	bge	fea81100 <_end+0xcea7f208>
      fc:	04000000 	streq	r0, [r0], #-0
     100:	03640300 	cmneq	r4, #0, 6
     104:	ab040000 	blge	10010c <__code_start-0x2feffef4>
     108:	000000e0 	andeq	r0, r0, r0, ror #1
     10c:	00013a03 	andeq	r3, r1, r3, lsl #20
     110:	7daf0400 	cfstrsvc	mvf0, [pc]	; 118 <__code_start-0x2ffffee8>
     114:	0c000000 	stceq	0, cr0, [r0], {-0}
     118:	1f040d04 	svcne	0x00040d04
     11c:	04000001 	streq	r0, [r0], #-1
     120:	03290801 			; <UNDEFINED> instruction: 0x03290801
     124:	1f0e0000 	svcne	0x000e0000
     128:	03000001 	movweq	r0, #1
     12c:	00000419 	andeq	r0, r0, r9, lsl r4
     130:	006f1605 	rsbeq	r1, pc, r5, lsl #12
     134:	4b0f0000 	blmi	3c013c <__code_start-0x2fc3fec4>
     138:	18000001 	stmdane	r0, {r0}
     13c:	01892d05 	orreq	r2, r9, r5, lsl #26
     140:	850b0000 	strhi	r0, [fp, #-0]
     144:	05000003 	streq	r0, [r0, #-3]
     148:	0001892f 	andeq	r8, r1, pc, lsr #18
     14c:	5f100000 	svcpl	0x00100000
     150:	3005006b 	andcc	r0, r5, fp, rrx
     154:	00000025 	andeq	r0, r0, r5, lsr #32
     158:	03bc0b04 			; <UNDEFINED> instruction: 0x03bc0b04
     15c:	30050000 	andcc	r0, r5, r0
     160:	00000025 	andeq	r0, r0, r5, lsr #32
     164:	01340b08 	teqeq	r4, r8, lsl #22
     168:	30050000 	andcc	r0, r5, r0
     16c:	00000025 	andeq	r0, r0, r5, lsr #32
     170:	04600b0c 	strbteq	r0, [r0], #-2828	; 0xfffff4f4
     174:	30050000 	andcc	r0, r5, r0
     178:	00000025 	andeq	r0, r0, r5, lsr #32
     17c:	785f1010 	ldmdavc	pc, {r4, ip}^	; <UNPREDICTABLE>
     180:	8f310500 	svchi	0x00310500
     184:	14000001 	strne	r0, [r0], #-1
     188:	36040d00 	strcc	r0, [r4], -r0, lsl #26
     18c:	08000001 	stmdaeq	r0, {r0}
     190:	0000012b 	andeq	r0, r0, fp, lsr #2
     194:	0000019f 	muleq	r0, pc, r1	; <UNPREDICTABLE>
     198:	0000d909 	andeq	sp, r0, r9, lsl #18
     19c:	0f000000 	svceq	0x00000000
     1a0:	00000172 	andeq	r0, r0, r2, ror r1
     1a4:	18350524 	ldmdane	r5!, {r2, r5, r8, sl}
     1a8:	0b000002 	bleq	1b8 <__code_start-0x2ffffe48>
     1ac:	00000089 	andeq	r0, r0, r9, lsl #1
     1b0:	00253705 	eoreq	r3, r5, r5, lsl #14
     1b4:	0b000000 	bleq	1bc <__code_start-0x2ffffe44>
     1b8:	000003ef 	andeq	r0, r0, pc, ror #7
     1bc:	00253805 	eoreq	r3, r5, r5, lsl #16
     1c0:	0b040000 	bleq	1001c8 <__code_start-0x2feffe38>
     1c4:	000000ac 	andeq	r0, r0, ip, lsr #1
     1c8:	00253905 	eoreq	r3, r5, r5, lsl #18
     1cc:	0b080000 	bleq	2001d4 <__code_start-0x2fdffe2c>
     1d0:	000004d9 	ldrdeq	r0, [r0], -r9
     1d4:	00253a05 	eoreq	r3, r5, r5, lsl #20
     1d8:	0b0c0000 	bleq	3001e0 <__code_start-0x2fcffe20>
     1dc:	000002e1 	andeq	r0, r0, r1, ror #5
     1e0:	00253b05 	eoreq	r3, r5, r5, lsl #22
     1e4:	0b100000 	bleq	4001ec <__code_start-0x2fbffe14>
     1e8:	00000283 	andeq	r0, r0, r3, lsl #5
     1ec:	00253c05 	eoreq	r3, r5, r5, lsl #24
     1f0:	0b140000 	bleq	5001f8 <__code_start-0x2faffe08>
     1f4:	00000465 	andeq	r0, r0, r5, ror #8
     1f8:	00253d05 	eoreq	r3, r5, r5, lsl #26
     1fc:	0b180000 	bleq	600204 <__code_start-0x2f9ffdfc>
     200:	00000346 	andeq	r0, r0, r6, asr #6
     204:	00253e05 	eoreq	r3, r5, r5, lsl #28
     208:	0b1c0000 	bleq	700210 <__code_start-0x2f8ffdf0>
     20c:	000004a0 	andeq	r0, r0, r0, lsr #9
     210:	00253f05 	eoreq	r3, r5, r5, lsl #30
     214:	00200000 	eoreq	r0, r0, r0
     218:	0000bb11 	andeq	fp, r0, r1, lsl fp
     21c:	05010800 	streq	r0, [r1, #-2048]	; 0xfffff800
     220:	00025848 	andeq	r5, r2, r8, asr #16
     224:	01270b00 			; <UNDEFINED> instruction: 0x01270b00
     228:	49050000 	stmdbmi	r5, {}	; <UNPREDICTABLE>
     22c:	00000258 	andeq	r0, r0, r8, asr r2
     230:	00000b00 	andeq	r0, r0, r0, lsl #22
     234:	4a050000 	bmi	14023c <__code_start-0x2febfdc4>
     238:	00000258 	andeq	r0, r0, r8, asr r2
     23c:	040b1280 	streq	r1, [fp], #-640	; 0xfffffd80
     240:	4c050000 	stcmi	0, cr0, [r5], {-0}
     244:	0000012b 	andeq	r0, r0, fp, lsr #2
     248:	e0120100 	ands	r0, r2, r0, lsl #2
     24c:	05000000 	streq	r0, [r0, #-0]
     250:	00012b4f 	andeq	r2, r1, pc, asr #22
     254:	00010400 	andeq	r0, r1, r0, lsl #8
     258:	00011708 	andeq	r1, r1, r8, lsl #14
     25c:	00026800 	andeq	r6, r2, r0, lsl #16
     260:	00d90900 	sbcseq	r0, r9, r0, lsl #18
     264:	001f0000 	andseq	r0, pc, r0
     268:	0002ea11 	andeq	lr, r2, r1, lsl sl
     26c:	05019000 	streq	r9, [r1, #-0]
     270:	0002a65b 	andeq	sl, r2, fp, asr r6
     274:	03850b00 	orreq	r0, r5, #0, 22
     278:	5c050000 	stcpl	0, cr0, [r5], {-0}
     27c:	000002a6 	andeq	r0, r0, r6, lsr #5
     280:	039d0b00 	orrseq	r0, sp, #0, 22
     284:	5d050000 	stcpl	0, cr0, [r5, #-0]
     288:	00000025 	andeq	r0, r0, r5, lsr #32
     28c:	012f0b04 			; <UNDEFINED> instruction: 0x012f0b04
     290:	5f050000 	svcpl	0x00050000
     294:	000002ac 	andeq	r0, r0, ip, lsr #5
     298:	00bb0b08 	adcseq	r0, fp, r8, lsl #22
     29c:	60050000 	andvs	r0, r5, r0
     2a0:	00000218 	andeq	r0, r0, r8, lsl r2
     2a4:	040d0088 	streq	r0, [sp], #-136	; 0xffffff78
     2a8:	00000268 	andeq	r0, r0, r8, ror #4
     2ac:	0002bc08 	andeq	fp, r2, r8, lsl #24
     2b0:	0002bc00 	andeq	fp, r2, r0, lsl #24
     2b4:	00d90900 	sbcseq	r0, r9, r0, lsl #18
     2b8:	001f0000 	andseq	r0, pc, r0
     2bc:	02c2040d 	sbceq	r0, r2, #218103808	; 0xd000000
     2c0:	0f130000 	svceq	0x00130000
     2c4:	00000350 	andeq	r0, r0, r0, asr r3
     2c8:	e8730508 	ldmda	r3!, {r3, r8, sl}^
     2cc:	0b000002 	bleq	2dc <__code_start-0x2ffffd24>
     2d0:	000000a6 	andeq	r0, r0, r6, lsr #1
     2d4:	02e87405 	rsceq	r7, r8, #83886080	; 0x5000000
     2d8:	0b000000 	bleq	2e0 <__code_start-0x2ffffd20>
     2dc:	0000000c 	andeq	r0, r0, ip
     2e0:	00257505 	eoreq	r7, r5, r5, lsl #10
     2e4:	00040000 	andeq	r0, r4, r0
     2e8:	0053040d 	subseq	r0, r3, sp, lsl #8
     2ec:	6f0f0000 	svcvs	0x000f0000
     2f0:	68000003 	stmdavs	r0, {r0, r1}
     2f4:	0418b305 	ldreq	fp, [r8], #-773	; 0xfffffcfb
     2f8:	5f100000 	svcpl	0x00100000
     2fc:	b4050070 	strlt	r0, [r5], #-112	; 0xffffff90
     300:	000002e8 	andeq	r0, r0, r8, ror #5
     304:	725f1000 	subsvc	r1, pc, #0
     308:	25b50500 	ldrcs	r0, [r5, #1280]!	; 0x500
     30c:	04000000 	streq	r0, [r0], #-0
     310:	00775f10 	rsbseq	r5, r7, r0, lsl pc
     314:	0025b605 	eoreq	fp, r5, r5, lsl #12
     318:	0b080000 	bleq	200320 <__code_start-0x2fdffce0>
     31c:	000000d9 	ldrdeq	r0, [r0], -r9
     320:	005ab705 	subseq	fp, sl, r5, lsl #14
     324:	0b0c0000 	bleq	30032c <__code_start-0x2fcffcd4>
     328:	0000018e 	andeq	r0, r0, lr, lsl #3
     32c:	005ab805 	subseq	fp, sl, r5, lsl #16
     330:	100e0000 	andne	r0, lr, r0
     334:	0066625f 	rsbeq	r6, r6, pc, asr r2
     338:	02c3b905 	sbceq	fp, r3, #81920	; 0x14000
     33c:	0b100000 	bleq	400344 <__code_start-0x2fbffcbc>
     340:	00000063 	andeq	r0, r0, r3, rrx
     344:	0025ba05 	eoreq	fp, r5, r5, lsl #20
     348:	0b180000 	bleq	600350 <__code_start-0x2f9ffcb0>
     34c:	000000c9 	andeq	r0, r0, r9, asr #1
     350:	0117c105 	tsteq	r7, r5, lsl #2
     354:	0b1c0000 	bleq	70035c <__code_start-0x2f8ffca4>
     358:	00000162 	andeq	r0, r0, r2, ror #2
     35c:	0573c305 	ldrbeq	ip, [r3, #-773]!	; 0xfffffcfb
     360:	0b200000 	bleq	800368 <__code_start-0x2f7ffc98>
     364:	0000027c 	andeq	r0, r0, ip, ror r2
     368:	059dc505 	ldreq	ip, [sp, #1285]	; 0x505
     36c:	0b240000 	bleq	900374 <__code_start-0x2f6ffc8c>
     370:	000003e1 	andeq	r0, r0, r1, ror #7
     374:	05c1c805 	strbeq	ip, [r1, #2053]	; 0x805
     378:	0b280000 	bleq	a00380 <__code_start-0x2f5ffc80>
     37c:	000004ba 			; <UNDEFINED> instruction: 0x000004ba
     380:	05dbc905 	ldrbeq	ip, [fp, #2309]	; 0x905
     384:	102c0000 	eorne	r0, ip, r0
     388:	0062755f 	rsbeq	r7, r2, pc, asr r5
     38c:	02c3cc05 	sbceq	ip, r3, #1280	; 0x500
     390:	10300000 	eorsne	r0, r0, r0
     394:	0070755f 	rsbseq	r7, r0, pc, asr r5
     398:	02e8cd05 	rsceq	ip, r8, #320	; 0x140
     39c:	10380000 	eorsne	r0, r8, r0
     3a0:	0072755f 	rsbseq	r7, r2, pc, asr r5
     3a4:	0025ce05 	eoreq	ip, r5, r5, lsl #28
     3a8:	0b3c0000 	bleq	f003b0 <__code_start-0x2f0ffc50>
     3ac:	000000a0 	andeq	r0, r0, r0, lsr #1
     3b0:	05e1d105 	strbeq	sp, [r1, #261]!	; 0x105
     3b4:	0b400000 	bleq	10003bc <__code_start-0x2efffc44>
     3b8:	00000492 	muleq	r0, r2, r4
     3bc:	05f1d205 	ldrbeq	sp, [r1, #517]!	; 0x205
     3c0:	10430000 	subne	r0, r3, r0
     3c4:	00626c5f 	rsbeq	r6, r2, pc, asr ip
     3c8:	02c3d505 	sbceq	sp, r3, #20971520	; 0x1400000
     3cc:	0b440000 	bleq	11003d4 <__code_start-0x2eeffc2c>
     3d0:	000000ef 	andeq	r0, r0, pc, ror #1
     3d4:	0025d805 	eoreq	sp, r5, r5, lsl #16
     3d8:	0b4c0000 	bleq	13003e0 <__code_start-0x2ecffc20>
     3dc:	00000100 	andeq	r0, r0, r0, lsl #2
     3e0:	0088d905 	addeq	sp, r8, r5, lsl #18
     3e4:	0b500000 	bleq	14003ec <__code_start-0x2ebffc14>
     3e8:	00000648 	andeq	r0, r0, r8, asr #12
     3ec:	0436dc05 	ldrteq	sp, [r6], #-3077	; 0xfffff3fb
     3f0:	0b540000 	bleq	15003f8 <__code_start-0x2eaffc08>
     3f4:	00000243 	andeq	r0, r0, r3, asr #4
     3f8:	010ce005 	tsteq	ip, r5
     3fc:	0b580000 	bleq	1600404 <__code_start-0x2e9ffbfc>
     400:	00000377 	andeq	r0, r0, r7, ror r3
     404:	0101e205 	tsteq	r1, r5, lsl #4
     408:	0b5c0000 	bleq	1700410 <__code_start-0x2e8ffbf0>
     40c:	00000249 	andeq	r0, r0, r9, asr #4
     410:	0025e305 	eoreq	lr, r5, r5, lsl #6
     414:	00640000 	rsbeq	r0, r4, r0
     418:	00002514 	andeq	r2, r0, r4, lsl r5
     41c:	00043600 	andeq	r3, r4, r0, lsl #12
     420:	04361500 	ldrteq	r1, [r6], #-1280	; 0xfffffb00
     424:	17150000 	ldrne	r0, [r5, -r0]
     428:	15000001 	strne	r0, [r0, #-1]
     42c:	00000119 	andeq	r0, r0, r9, lsl r1
     430:	00002515 	andeq	r2, r0, r5, lsl r5
     434:	040d0000 	streq	r0, [sp], #-0
     438:	00000441 	andeq	r0, r0, r1, asr #8
     43c:	0004360e 	andeq	r3, r4, lr, lsl #12
     440:	03c41600 	biceq	r1, r4, #0, 12
     444:	04280000 	strteq	r0, [r8], #-0
     448:	73023805 	movwvc	r3, #10245	; 0x2805
     44c:	17000005 	strne	r0, [r0, -r5]
     450:	00000335 	andeq	r0, r0, r5, lsr r3
     454:	25023a05 	strcs	r3, [r2, #-2565]	; 0xfffff5fb
     458:	00000000 	andeq	r0, r0, r0
     45c:	0000e817 	andeq	lr, r0, r7, lsl r8
     460:	023f0500 	eorseq	r0, pc, #0, 10
     464:	00000648 	andeq	r0, r0, r8, asr #12
     468:	017e1704 	cmneq	lr, r4, lsl #14
     46c:	3f050000 	svccc	0x00050000
     470:	00064802 	andeq	r4, r6, r2, lsl #16
     474:	43170800 	tstmi	r7, #0, 16
     478:	05000001 	streq	r0, [r0, #-1]
     47c:	0648023f 			; <UNDEFINED> instruction: 0x0648023f
     480:	170c0000 	strne	r0, [ip, -r0]
     484:	00000398 	muleq	r0, r8, r3
     488:	25024105 	strcs	r4, [r2, #-261]	; 0xfffffefb
     48c:	10000000 	andne	r0, r0, r0
     490:	00002117 	andeq	r2, r0, r7, lsl r1
     494:	02420500 	subeq	r0, r2, #0, 10
     498:	0000082a 	andeq	r0, r0, sl, lsr #16
     49c:	04411714 	strbeq	r1, [r1], #-1812	; 0xfffff8ec
     4a0:	44050000 	strmi	r0, [r5], #-0
     4a4:	00002502 	andeq	r2, r0, r2, lsl #10
     4a8:	a2173000 	andsge	r3, r7, #0
     4ac:	05000003 	streq	r0, [r0, #-3]
     4b0:	05970245 	ldreq	r0, [r7, #581]	; 0x245
     4b4:	17340000 	ldrne	r0, [r4, -r0]!
     4b8:	000002f2 	strdeq	r0, [r0], -r2
     4bc:	25024705 	strcs	r4, [r2, #-1797]	; 0xfffff8fb
     4c0:	38000000 	stmdacc	r0, {}	; <UNPREDICTABLE>
     4c4:	0003b217 	andeq	fp, r3, r7, lsl r2
     4c8:	02490500 	subeq	r0, r9, #0, 10
     4cc:	00000845 	andeq	r0, r0, r5, asr #16
     4d0:	01d7173c 	bicseq	r1, r7, ip, lsr r7
     4d4:	4c050000 	stcmi	0, cr0, [r5], {-0}
     4d8:	00018902 	andeq	r8, r1, r2, lsl #18
     4dc:	68174000 	ldmdavs	r7, {lr}
     4e0:	05000001 	streq	r0, [r0, #-1]
     4e4:	0025024d 	eoreq	r0, r5, sp, asr #4
     4e8:	17440000 	strbne	r0, [r4, -r0]
     4ec:	000004d4 	ldrdeq	r0, [r0], -r4
     4f0:	89024e05 	stmdbhi	r2, {r0, r2, r9, sl, fp, lr}
     4f4:	48000001 	stmdami	r0, {r0}
     4f8:	00030417 	andeq	r0, r3, r7, lsl r4
     4fc:	024f0500 	subeq	r0, pc, #0, 10
     500:	0000084b 	andeq	r0, r0, fp, asr #16
     504:	0186174c 	orreq	r1, r6, ip, asr #14
     508:	52050000 	andpl	r0, r5, #0
     50c:	00002502 	andeq	r2, r0, r2, lsl #10
     510:	f8175000 			; <UNDEFINED> instruction: 0xf8175000
     514:	05000000 	streq	r0, [r0, #-0]
     518:	01190253 	tsteq	r9, r3, asr r2
     51c:	17540000 	ldrbne	r0, [r4, -r0]
     520:	0000032e 	andeq	r0, r0, lr, lsr #6
     524:	08027605 	stmdaeq	r2, {r0, r2, r9, sl, ip, sp, lr}
     528:	58000008 	stmdapl	r0, {r3}
     52c:	0002ea18 	andeq	lr, r2, r8, lsl sl
     530:	027a0500 	rsbseq	r0, sl, #0, 10
     534:	000002a6 	andeq	r0, r0, r6, lsr #5
     538:	ae180148 	mufgeem	f0, f0, #0.0
     53c:	05000001 	streq	r0, [r0, #-1]
     540:	0268027b 	rsbeq	r0, r8, #-1342177273	; 0xb0000007
     544:	014c0000 	mrseq	r0, (UNDEF: 76)
     548:	00048818 	andeq	r8, r4, r8, lsl r8
     54c:	027f0500 	rsbseq	r0, pc, #0, 10
     550:	0000085c 	andeq	r0, r0, ip, asr r8
     554:	d11802dc 			; <UNDEFINED> instruction: 0xd11802dc
     558:	05000000 	streq	r0, [r0, #-0]
     55c:	060d0284 	streq	r0, [sp], -r4, lsl #5
     560:	02e00000 	rsceq	r0, r0, #0
     564:	0000b618 	andeq	fp, r0, r8, lsl r6
     568:	02850500 	addeq	r0, r5, #0, 10
     56c:	00000868 	andeq	r0, r0, r8, ror #16
     570:	0d0002ec 	sfmeq	f0, 4, [r0, #-944]	; 0xfffffc50
     574:	00041804 	andeq	r1, r4, r4, lsl #16
     578:	00251400 	eoreq	r1, r5, r0, lsl #8
     57c:	05970000 	ldreq	r0, [r7]
     580:	36150000 	ldrcc	r0, [r5], -r0
     584:	15000004 	strne	r0, [r0, #-4]
     588:	00000117 	andeq	r0, r0, r7, lsl r1
     58c:	00059715 	andeq	r9, r5, r5, lsl r7
     590:	00251500 	eoreq	r1, r5, r0, lsl #10
     594:	0d000000 	stceq	0, cr0, [r0, #-0]
     598:	00012604 	andeq	r2, r1, r4, lsl #12
     59c:	79040d00 	stmdbvc	r4, {r8, sl, fp}
     5a0:	14000005 	strne	r0, [r0], #-5
     5a4:	00000093 	muleq	r0, r3, r0
     5a8:	000005c1 	andeq	r0, r0, r1, asr #11
     5ac:	00043615 	andeq	r3, r4, r5, lsl r6
     5b0:	01171500 	tsteq	r7, r0, lsl #10
     5b4:	93150000 	tstls	r5, #0
     5b8:	15000000 	strne	r0, [r0, #-0]
     5bc:	00000025 	andeq	r0, r0, r5, lsr #32
     5c0:	a3040d00 	movwge	r0, #19712	; 0x4d00
     5c4:	14000005 	strne	r0, [r0], #-5
     5c8:	00000025 	andeq	r0, r0, r5, lsr #32
     5cc:	000005db 	ldrdeq	r0, [r0], -fp
     5d0:	00043615 	andeq	r3, r4, r5, lsl r6
     5d4:	01171500 	tsteq	r7, r0, lsl #10
     5d8:	0d000000 	stceq	0, cr0, [r0, #-0]
     5dc:	0005c704 	andeq	ip, r5, r4, lsl #14
     5e0:	00530800 	subseq	r0, r3, r0, lsl #16
     5e4:	05f10000 	ldrbeq	r0, [r1, #0]!
     5e8:	d9090000 	stmdble	r9, {}	; <UNPREDICTABLE>
     5ec:	02000000 	andeq	r0, r0, #0
     5f0:	00530800 	subseq	r0, r3, r0, lsl #16
     5f4:	06010000 	streq	r0, [r1], -r0
     5f8:	d9090000 	stmdble	r9, {}	; <UNPREDICTABLE>
     5fc:	00000000 	andeq	r0, r0, r0
     600:	035d0500 	cmpeq	sp, #0, 10
     604:	1d050000 	stcne	0, cr0, [r5, #-0]
     608:	0002ee01 	andeq	lr, r2, r1, lsl #28
     60c:	046f1900 	strbteq	r1, [pc], #-2304	; 614 <__code_start-0x2ffff9ec>
     610:	050c0000 	streq	r0, [ip, #-0]
     614:	06420121 	strbeq	r0, [r2], -r1, lsr #2
     618:	85170000 	ldrhi	r0, [r7, #-0]
     61c:	05000003 	streq	r0, [r0, #-3]
     620:	06420123 	strbeq	r0, [r2], -r3, lsr #2
     624:	17000000 	strne	r0, [r0, -r0]
     628:	00000194 	muleq	r0, r4, r1
     62c:	25012405 	strcs	r2, [r1, #-1029]	; 0xfffffbfb
     630:	04000000 	streq	r0, [r0], #-0
     634:	00035717 	andeq	r5, r3, r7, lsl r7
     638:	01250500 			; <UNDEFINED> instruction: 0x01250500
     63c:	00000648 	andeq	r0, r0, r8, asr #12
     640:	040d0008 	streq	r0, [sp], #-8
     644:	0000060d 	andeq	r0, r0, sp, lsl #12
     648:	0601040d 	streq	r0, [r1], -sp, lsl #8
     64c:	19190000 	ldmdbne	r9, {}	; <UNPREDICTABLE>
     650:	0e000000 	cdpeq	0, 0, cr0, cr0, cr0, {0}
     654:	83013d05 	movwhi	r3, #7429	; 0x1d05
     658:	17000006 	strne	r0, [r0, -r6]
     65c:	000003cb 	andeq	r0, r0, fp, asr #7
     660:	83013e05 	movwhi	r3, #7685	; 0x1e05
     664:	00000006 	andeq	r0, r0, r6
     668:	0003f817 	andeq	pc, r3, r7, lsl r8	; <UNPREDICTABLE>
     66c:	013f0500 	teqeq	pc, r0, lsl #10
     670:	00000683 	andeq	r0, r0, r3, lsl #13
     674:	04141706 	ldreq	r1, [r4], #-1798	; 0xfffff8fa
     678:	40050000 	andmi	r0, r5, r0
     67c:	00006101 	andeq	r6, r0, r1, lsl #2
     680:	08000c00 	stmdaeq	r0, {sl, fp}
     684:	00000061 	andeq	r0, r0, r1, rrx
     688:	00000693 	muleq	r0, r3, r6
     68c:	0000d909 	andeq	sp, r0, r9, lsl #18
     690:	1a000200 	bne	e98 <__code_start-0x2ffff168>
     694:	025705d0 	subseq	r0, r7, #208, 10	; 0x34000000
     698:	00000794 	muleq	r0, r4, r7
     69c:	00045317 	andeq	r5, r4, r7, lsl r3
     6a0:	02590500 	subseq	r0, r9, #0, 10
     6a4:	00000037 	andeq	r0, r0, r7, lsr r0
     6a8:	03fe1700 	mvnseq	r1, #0, 14
     6ac:	5a050000 	bpl	1406b4 <__code_start-0x2febf94c>
     6b0:	00011902 	andeq	r1, r1, r2, lsl #18
     6b4:	c3170400 	tstgt	r7, #0, 8
     6b8:	05000001 	streq	r0, [r0, #-1]
     6bc:	0794025b 			; <UNDEFINED> instruction: 0x0794025b
     6c0:	17080000 	strne	r0, [r8, -r0]
     6c4:	000004ab 	andeq	r0, r0, fp, lsr #9
     6c8:	9f025c05 	svcls	0x00025c05
     6cc:	24000001 	strcs	r0, [r0], #-1
     6d0:	00015317 	andeq	r5, r1, r7, lsl r3
     6d4:	025d0500 	subseq	r0, sp, #0, 10
     6d8:	00000025 	andeq	r0, r0, r5, lsr #32
     6dc:	03801748 	orreq	r1, r0, #72, 14	; 0x1200000
     6e0:	5e050000 	cdppl	0, 0, cr0, cr5, cr0, {0}
     6e4:	00007602 	andeq	r7, r0, r2, lsl #12
     6e8:	c1175000 	tstgt	r7, r0
     6ec:	05000004 	streq	r0, [r0, #-4]
     6f0:	064e025f 			; <UNDEFINED> instruction: 0x064e025f
     6f4:	17580000 	ldrbne	r0, [r8, -r0]
     6f8:	0000038b 	andeq	r0, r0, fp, lsl #7
     6fc:	01026005 	tsteq	r2, r5
     700:	68000001 	stmdavs	r0, {r0}
     704:	0004c617 	andeq	ip, r4, r7, lsl r6
     708:	02610500 	rsbeq	r0, r1, #0, 10
     70c:	00000101 	andeq	r0, r0, r1, lsl #2
     710:	007b1770 	rsbseq	r1, fp, r0, ror r7
     714:	62050000 	andvs	r0, r5, #0
     718:	00010102 	andeq	r0, r1, r2, lsl #2
     71c:	7e177800 	cdpvc	8, 1, cr7, cr7, cr0, {0}
     720:	05000004 	streq	r0, [r0, #-4]
     724:	07a40263 	streq	r0, [r4, r3, ror #4]!
     728:	17800000 	strne	r0, [r0, r0]
     72c:	000001b7 			; <UNDEFINED> instruction: 0x000001b7
     730:	b4026405 	strlt	r6, [r2], #-1029	; 0xfffffbfb
     734:	88000007 	stmdahi	r0, {r0, r1, r2}
     738:	00042117 	andeq	r2, r4, r7, lsl r1
     73c:	02650500 	rsbeq	r0, r5, #0, 10
     740:	00000025 	andeq	r0, r0, r5, lsr #32
     744:	011917a0 	tsteq	r9, r0, lsr #15
     748:	66050000 	strvs	r0, [r5], -r0
     74c:	00010102 	andeq	r0, r1, r2, lsl #2
     750:	6c17a400 	cfldrsvs	mvf10, [r7], {-0}
     754:	05000000 	streq	r0, [r0, #-0]
     758:	01010267 	tsteq	r1, r7, ror #4
     75c:	17ac0000 	strne	r0, [ip, r0]!
     760:	00000108 	andeq	r0, r0, r8, lsl #2
     764:	01026805 	tsteq	r2, r5, lsl #16
     768:	b4000001 	strlt	r0, [r0], #-1
     76c:	00002c17 	andeq	r2, r0, r7, lsl ip
     770:	02690500 	rsbeq	r0, r9, #0, 10
     774:	00000101 	andeq	r0, r0, r1, lsl #2
     778:	003b17bc 	ldrhteq	r1, [fp], -ip
     77c:	6a050000 	bvs	140784 <__code_start-0x2febf87c>
     780:	00010102 	andeq	r0, r1, r2, lsl #2
     784:	3317c400 	tstcc	r7, #0, 8
     788:	05000003 	streq	r0, [r0, #-3]
     78c:	0025026b 	eoreq	r0, r5, fp, ror #4
     790:	00cc0000 	sbceq	r0, ip, r0
     794:	00011f08 	andeq	r1, r1, r8, lsl #30
     798:	0007a400 	andeq	sl, r7, r0, lsl #8
     79c:	00d90900 	sbcseq	r0, r9, r0, lsl #18
     7a0:	00190000 	andseq	r0, r9, r0
     7a4:	00011f08 	andeq	r1, r1, r8, lsl #30
     7a8:	0007b400 	andeq	fp, r7, r0, lsl #8
     7ac:	00d90900 	sbcseq	r0, r9, r0, lsl #18
     7b0:	00070000 	andeq	r0, r7, r0
     7b4:	00011f08 	andeq	r1, r1, r8, lsl #30
     7b8:	0007c400 	andeq	ip, r7, r0, lsl #8
     7bc:	00d90900 	sbcseq	r0, r9, r0, lsl #18
     7c0:	00170000 	andseq	r0, r7, r0
     7c4:	7005f01a 	andvc	pc, r5, sl, lsl r0	; <UNPREDICTABLE>
     7c8:	0007e802 	andeq	lr, r7, r2, lsl #16
     7cc:	02a21700 	adceq	r1, r2, #0, 14
     7d0:	73050000 	movwvc	r0, #20480	; 0x5000
     7d4:	0007e802 	andeq	lr, r7, r2, lsl #16
     7d8:	75170000 	ldrvc	r0, [r7, #-0]
     7dc:	05000004 	streq	r0, [r0, #-4]
     7e0:	07f80274 			; <UNDEFINED> instruction: 0x07f80274
     7e4:	00780000 	rsbseq	r0, r8, r0
     7e8:	0002e808 	andeq	lr, r2, r8, lsl #16
     7ec:	0007f800 	andeq	pc, r7, r0, lsl #16
     7f0:	00d90900 	sbcseq	r0, r9, r0, lsl #18
     7f4:	001d0000 	andseq	r0, sp, r0
     7f8:	00003708 	andeq	r3, r0, r8, lsl #14
     7fc:	00080800 	andeq	r0, r8, r0, lsl #16
     800:	00d90900 	sbcseq	r0, r9, r0, lsl #18
     804:	001d0000 	andseq	r0, sp, r0
     808:	5505f01b 	strpl	pc, [r5, #-27]	; 0xffffffe5
     80c:	00082a02 	andeq	r2, r8, r2, lsl #20
     810:	03c41c00 	biceq	r1, r4, #0, 24
     814:	6c050000 	stcvs	0, cr0, [r5], {-0}
     818:	00069302 	andeq	r9, r6, r2, lsl #6
     81c:	04981c00 	ldreq	r1, [r8], #3072	; 0xc00
     820:	75050000 	strvc	r0, [r5, #-0]
     824:	0007c402 	andeq	ip, r7, r2, lsl #8
     828:	1f080000 	svcne	0x00080000
     82c:	3a000001 	bcc	838 <__code_start-0x2ffff7c8>
     830:	09000008 	stmdbeq	r0, {r3}
     834:	000000d9 	ldrdeq	r0, [r0], -r9
     838:	451d0018 	ldrmi	r0, [sp, #-24]	; 0xffffffe8
     83c:	15000008 	strne	r0, [r0, #-8]
     840:	00000436 	andeq	r0, r0, r6, lsr r4
     844:	3a040d00 	bcc	103c4c <__code_start-0x2fefc3b4>
     848:	0d000008 	stceq	0, cr0, [r0, #-32]	; 0xffffffe0
     84c:	00018904 	andeq	r8, r1, r4, lsl #18
     850:	085c1d00 	ldmdaeq	ip, {r8, sl, fp, ip}^
     854:	25150000 	ldrcs	r0, [r5, #-0]
     858:	00000000 	andeq	r0, r0, r0
     85c:	0862040d 	stmdaeq	r2!, {r0, r2, r3, sl}^
     860:	040d0000 	streq	r0, [sp], #-0
     864:	00000851 	andeq	r0, r0, r1, asr r8
     868:	00060108 	andeq	r0, r6, r8, lsl #2
     86c:	00087800 	andeq	r7, r8, r0, lsl #16
     870:	00d90900 	sbcseq	r0, r9, r0, lsl #18
     874:	00020000 	andeq	r0, r2, r0
     878:	0004351e 	andeq	r3, r4, lr, lsl r5
     87c:	02fd0500 	rscseq	r0, sp, #0, 10
     880:	00000436 	andeq	r0, r0, r6, lsr r4
     884:	00042e1e 	andeq	r2, r4, lr, lsl lr
     888:	02fe0500 	rscseq	r0, lr, #0, 10
     88c:	0000043c 	andeq	r0, r0, ip, lsr r4
     890:	0001d01f 	andeq	sp, r1, pc, lsl r0
     894:	2c210600 	stccs	6, cr0, [r1], #-0
     898:	30000000 	andcc	r0, r0, r0
     89c:	60300012 	eorsvs	r0, r0, r2, lsl r0
     8a0:	01000000 	mrseq	r0, (UNDEF: 0)
     8a4:	7473209c 	ldrbtvc	r2, [r3], #-156	; 0xffffff64
     8a8:	37010072 	smlsdxcc	r1, r2, r0, r0
     8ac:	00000597 	muleq	r0, r7, r5
     8b0:	00000000 	andeq	r0, r0, r0
     8b4:	0a180000 	beq	6008bc <__code_start-0x2f9ff744>
     8b8:	00040000 	andeq	r0, r4, r0
     8bc:	0000019e 	muleq	r0, lr, r1
     8c0:	02510104 	subseq	r0, r1, #4, 2
     8c4:	7c0c0000 	stcvc	0, cr0, [ip], {-0}
     8c8:	ed000005 	stc	0, cr0, [r0, #-20]	; 0xffffffec
     8cc:	90000004 	andls	r0, r0, r4
     8d0:	54300012 	ldrtpl	r0, [r0], #-18	; 0xffffffee
     8d4:	4c000002 	stcmi	0, cr0, [r0], {2}
     8d8:	02000001 	andeq	r0, r0, #1
     8dc:	03220601 			; <UNDEFINED> instruction: 0x03220601
     8e0:	01020000 	mrseq	r0, (UNDEF: 2)
     8e4:	00032008 	andeq	r2, r3, r8
     8e8:	002c0300 	eoreq	r0, ip, r0, lsl #6
     8ec:	02020000 	andeq	r0, r2, #0
     8f0:	00033c05 	andeq	r3, r3, r5, lsl #24
     8f4:	07020200 	streq	r0, [r2, -r0, lsl #4]
     8f8:	0000019b 	muleq	r0, fp, r1
     8fc:	97050402 	strls	r0, [r5, -r2, lsl #8]
     900:	02000000 	andeq	r0, r0, #0
     904:	00510704 	subseq	r0, r1, r4, lsl #14
     908:	08020000 	stmdaeq	r2, {}	; <UNPREDICTABLE>
     90c:	00009205 	andeq	r9, r0, r5, lsl #4
     910:	07080200 	streq	r0, [r8, -r0, lsl #4]
     914:	0000004c 	andeq	r0, r0, ip, asr #32
     918:	69050404 	stmdbvs	r5, {r2, sl}
     91c:	0200746e 	andeq	r7, r0, #1845493760	; 0x6e000000
     920:	00560704 	subseq	r0, r6, r4, lsl #14
     924:	08020000 	stmdaeq	r2, {}	; <UNPREDICTABLE>
     928:	00029604 	andeq	r9, r2, r4, lsl #12
     92c:	053f0500 	ldreq	r0, [pc, #-1280]!	; 434 <__code_start-0x2ffffbcc>
     930:	2e020000 	cdpcs	0, 0, cr0, cr2, cr0, {0}
     934:	00000082 	andeq	r0, r0, r2, lsl #1
     938:	00990406 	addseq	r0, r9, r6, lsl #8
     93c:	82030000 	andhi	r0, r3, #0
     940:	07000000 	streq	r0, [r0, -r0]
     944:	00000082 	andeq	r0, r0, r2, lsl #1
     948:	29080102 	stmdbcs	r8, {r1, r8}
     94c:	03000003 	movweq	r0, #3
     950:	00000092 	muleq	r0, r2, r0
     954:	00009908 	andeq	r9, r0, r8, lsl #18
     958:	0000a900 	andeq	sl, r0, r0, lsl #18
     95c:	03000900 	movweq	r0, #2304	; 0x900
     960:	0000009e 	muleq	r0, lr, r0
     964:	0005b105 	andeq	fp, r5, r5, lsl #2
     968:	a96e0200 	stmdbge	lr!, {r9}^
     96c:	0a000000 	beq	974 <__code_start-0x2ffff68c>
     970:	0000030e 	andeq	r0, r0, lr, lsl #6
     974:	00620703 	rsbeq	r0, r2, r3, lsl #14
     978:	fd0a0000 	stc2	0, cr0, [sl, #-0]
     97c:	04000002 	streq	r0, [r0], #-2
     980:	0000462c 	andeq	r4, r0, ip, lsr #12
     984:	03e70a00 	mvneq	r0, #0, 20
     988:	72040000 	andvc	r0, r4, #0
     98c:	00000046 	andeq	r0, r0, r6, asr #32
     990:	0001e50b 	andeq	lr, r1, fp, lsl #10
     994:	01650500 	cmneq	r5, r0, lsl #10
     998:	00000069 	andeq	r0, r0, r9, rrx
     99c:	a604040c 	strge	r0, [r4], -ip, lsl #8
     9a0:	00000105 	andeq	r0, r0, r5, lsl #2
     9a4:	0001df0d 	andeq	sp, r1, sp, lsl #30
     9a8:	daa80400 	ble	fea019b0 <_end+0xce9ffab8>
     9ac:	0d000000 	stceq	0, cr0, [r0, #-0]
     9b0:	00000177 	andeq	r0, r0, r7, ror r1
     9b4:	0105a904 	tsteq	r5, r4, lsl #18
     9b8:	08000000 	stmdaeq	r0, {}	; <UNPREDICTABLE>
     9bc:	0000002c 	andeq	r0, r0, ip, lsr #32
     9c0:	00000115 	andeq	r0, r0, r5, lsl r1
     9c4:	0001150e 	andeq	r1, r1, lr, lsl #10
     9c8:	02000300 	andeq	r0, r0, #0, 6
     9cc:	028d0704 	addeq	r0, sp, #4, 14	; 0x100000
     9d0:	080f0000 	stmdaeq	pc, {}	; <UNPREDICTABLE>
     9d4:	013da304 	teqeq	sp, r4, lsl #6
     9d8:	d1100000 	tstle	r0, r0
     9dc:	04000003 	streq	r0, [r0], #-3
     9e0:	000062a5 	andeq	r6, r0, r5, lsr #5
     9e4:	d9100000 	ldmdble	r0, {}	; <UNPREDICTABLE>
     9e8:	04000003 	streq	r0, [r0], #-3
     9ec:	0000e6aa 	andeq	lr, r0, sl, lsr #13
     9f0:	0a000400 	beq	19f8 <__code_start-0x2fffe608>
     9f4:	00000364 	andeq	r0, r0, r4, ror #6
     9f8:	011cab04 	tsteq	ip, r4, lsl #22
     9fc:	3a0a0000 	bcc	280a04 <__code_start-0x2fd7f5fc>
     a00:	04000001 	streq	r0, [r0], #-1
     a04:	0000b9af 	andeq	fp, r0, pc, lsr #19
     a08:	0a041100 	beq	104e10 <__code_start-0x2fefb1f0>
     a0c:	00000419 	andeq	r0, r0, r9, lsl r4
     a10:	004d1606 	subeq	r1, sp, r6, lsl #12
     a14:	4b120000 	blmi	480a1c <__code_start-0x2fb7f5e4>
     a18:	18000001 	stmdane	r0, {r0}
     a1c:	01b32d06 			; <UNDEFINED> instruction: 0x01b32d06
     a20:	85100000 	ldrhi	r0, [r0, #-0]
     a24:	06000003 	streq	r0, [r0], -r3
     a28:	0001b32f 	andeq	fp, r1, pc, lsr #6
     a2c:	5f130000 	svcpl	0x00130000
     a30:	3006006b 	andcc	r0, r6, fp, rrx
     a34:	00000062 	andeq	r0, r0, r2, rrx
     a38:	03bc1004 			; <UNDEFINED> instruction: 0x03bc1004
     a3c:	30060000 	andcc	r0, r6, r0
     a40:	00000062 	andeq	r0, r0, r2, rrx
     a44:	01341008 	teqeq	r4, r8
     a48:	30060000 	andcc	r0, r6, r0
     a4c:	00000062 	andeq	r0, r0, r2, rrx
     a50:	0460100c 	strbteq	r1, [r0], #-12
     a54:	30060000 	andcc	r0, r6, r0
     a58:	00000062 	andeq	r0, r0, r2, rrx
     a5c:	785f1310 	ldmdavc	pc, {r4, r8, r9, ip}^	; <UNPREDICTABLE>
     a60:	b9310600 	ldmdblt	r1!, {r9, sl}
     a64:	14000001 	strne	r0, [r0], #-1
     a68:	60040600 	andvs	r0, r4, r0, lsl #12
     a6c:	08000001 	stmdaeq	r0, {r0}
     a70:	00000155 	andeq	r0, r0, r5, asr r1
     a74:	000001c9 	andeq	r0, r0, r9, asr #3
     a78:	0001150e 	andeq	r1, r1, lr, lsl #10
     a7c:	12000000 	andne	r0, r0, #0
     a80:	00000172 	andeq	r0, r0, r2, ror r1
     a84:	42350624 	eorsmi	r0, r5, #36, 12	; 0x2400000
     a88:	10000002 	andne	r0, r0, r2
     a8c:	00000089 	andeq	r0, r0, r9, lsl #1
     a90:	00623706 	rsbeq	r3, r2, r6, lsl #14
     a94:	10000000 	andne	r0, r0, r0
     a98:	000003ef 	andeq	r0, r0, pc, ror #7
     a9c:	00623806 	rsbeq	r3, r2, r6, lsl #16
     aa0:	10040000 	andne	r0, r4, r0
     aa4:	000000ac 	andeq	r0, r0, ip, lsr #1
     aa8:	00623906 	rsbeq	r3, r2, r6, lsl #18
     aac:	10080000 	andne	r0, r8, r0
     ab0:	000004d9 	ldrdeq	r0, [r0], -r9
     ab4:	00623a06 	rsbeq	r3, r2, r6, lsl #20
     ab8:	100c0000 	andne	r0, ip, r0
     abc:	000002e1 	andeq	r0, r0, r1, ror #5
     ac0:	00623b06 	rsbeq	r3, r2, r6, lsl #22
     ac4:	10100000 	andsne	r0, r0, r0
     ac8:	00000283 	andeq	r0, r0, r3, lsl #5
     acc:	00623c06 	rsbeq	r3, r2, r6, lsl #24
     ad0:	10140000 	andsne	r0, r4, r0
     ad4:	00000465 	andeq	r0, r0, r5, ror #8
     ad8:	00623d06 	rsbeq	r3, r2, r6, lsl #26
     adc:	10180000 	andsne	r0, r8, r0
     ae0:	00000346 	andeq	r0, r0, r6, asr #6
     ae4:	00623e06 	rsbeq	r3, r2, r6, lsl #28
     ae8:	101c0000 	andsne	r0, ip, r0
     aec:	000004a0 	andeq	r0, r0, r0, lsr #9
     af0:	00623f06 	rsbeq	r3, r2, r6, lsl #30
     af4:	00200000 	eoreq	r0, r0, r0
     af8:	0000bb14 	andeq	fp, r0, r4, lsl fp
     afc:	06010800 	streq	r0, [r1], -r0, lsl #16
     b00:	00028248 	andeq	r8, r2, r8, asr #4
     b04:	01271000 			; <UNDEFINED> instruction: 0x01271000
     b08:	49060000 	stmdbmi	r6, {}	; <UNPREDICTABLE>
     b0c:	00000282 	andeq	r0, r0, r2, lsl #5
     b10:	00001000 	andeq	r1, r0, r0
     b14:	4a060000 	bmi	180b1c <__code_start-0x2fe7f4e4>
     b18:	00000282 	andeq	r0, r0, r2, lsl #5
     b1c:	040b1580 	streq	r1, [fp], #-1408	; 0xfffffa80
     b20:	4c060000 	stcmi	0, cr0, [r6], {-0}
     b24:	00000155 	andeq	r0, r0, r5, asr r1
     b28:	e0150100 	ands	r0, r5, r0, lsl #2
     b2c:	06000000 	streq	r0, [r0], -r0
     b30:	0001554f 	andeq	r5, r1, pc, asr #10
     b34:	00010400 	andeq	r0, r1, r0, lsl #8
     b38:	00015308 	andeq	r5, r1, r8, lsl #6
     b3c:	00029200 	andeq	r9, r2, r0, lsl #4
     b40:	01150e00 	tsteq	r5, r0, lsl #28
     b44:	001f0000 	andseq	r0, pc, r0
     b48:	0002ea14 	andeq	lr, r2, r4, lsl sl
     b4c:	06019000 	streq	r9, [r1], -r0
     b50:	0002d05b 	andeq	sp, r2, fp, asr r0
     b54:	03851000 	orreq	r1, r5, #0
     b58:	5c060000 	stcpl	0, cr0, [r6], {-0}
     b5c:	000002d0 	ldrdeq	r0, [r0], -r0	; <UNPREDICTABLE>
     b60:	039d1000 	orrseq	r1, sp, #0
     b64:	5d060000 	stcpl	0, cr0, [r6, #-0]
     b68:	00000062 	andeq	r0, r0, r2, rrx
     b6c:	012f1004 			; <UNDEFINED> instruction: 0x012f1004
     b70:	5f060000 	svcpl	0x00060000
     b74:	000002d6 	ldrdeq	r0, [r0], -r6
     b78:	00bb1008 	adcseq	r1, fp, r8
     b7c:	60060000 	andvs	r0, r6, r0
     b80:	00000242 	andeq	r0, r0, r2, asr #4
     b84:	04060088 	streq	r0, [r6], #-136	; 0xffffff78
     b88:	00000292 	muleq	r0, r2, r2
     b8c:	0002e608 	andeq	lr, r2, r8, lsl #12
     b90:	0002e600 	andeq	lr, r2, r0, lsl #12
     b94:	01150e00 	tsteq	r5, r0, lsl #28
     b98:	001f0000 	andseq	r0, pc, r0
     b9c:	02ec0406 	rsceq	r0, ip, #100663296	; 0x6000000
     ba0:	12160000 	andsne	r0, r6, #0
     ba4:	00000350 	andeq	r0, r0, r0, asr r3
     ba8:	12730608 	rsbsne	r0, r3, #8, 12	; 0x800000
     bac:	10000003 	andne	r0, r0, r3
     bb0:	000000a6 	andeq	r0, r0, r6, lsr #1
     bb4:	03127406 	tsteq	r2, #100663296	; 0x6000000
     bb8:	10000000 	andne	r0, r0, r0
     bbc:	0000000c 	andeq	r0, r0, ip
     bc0:	00627506 	rsbeq	r7, r2, r6, lsl #10
     bc4:	00040000 	andeq	r0, r4, r0
     bc8:	002c0406 	eoreq	r0, ip, r6, lsl #8
     bcc:	6f120000 	svcvs	0x00120000
     bd0:	68000003 	stmdavs	r0, {r0, r1}
     bd4:	0442b306 	strbeq	fp, [r2], #-774	; 0xfffffcfa
     bd8:	5f130000 	svcpl	0x00130000
     bdc:	b4060070 	strlt	r0, [r6], #-112	; 0xffffff90
     be0:	00000312 	andeq	r0, r0, r2, lsl r3
     be4:	725f1300 	subsvc	r1, pc, #0, 6
     be8:	62b50600 	adcsvs	r0, r5, #0, 12
     bec:	04000000 	streq	r0, [r0], #-0
     bf0:	00775f13 	rsbseq	r5, r7, r3, lsl pc
     bf4:	0062b606 	rsbeq	fp, r2, r6, lsl #12
     bf8:	10080000 	andne	r0, r8, r0
     bfc:	000000d9 	ldrdeq	r0, [r0], -r9
     c00:	0038b706 	eorseq	fp, r8, r6, lsl #14
     c04:	100c0000 	andne	r0, ip, r0
     c08:	0000018e 	andeq	r0, r0, lr, lsl #3
     c0c:	0038b806 	eorseq	fp, r8, r6, lsl #16
     c10:	130e0000 	movwne	r0, #57344	; 0xe000
     c14:	0066625f 	rsbeq	r6, r6, pc, asr r2
     c18:	02edb906 	rsceq	fp, sp, #98304	; 0x18000
     c1c:	10100000 	andsne	r0, r0, r0
     c20:	00000063 	andeq	r0, r0, r3, rrx
     c24:	0062ba06 	rsbeq	fp, r2, r6, lsl #20
     c28:	10180000 	andsne	r0, r8, r0
     c2c:	000000c9 	andeq	r0, r0, r9, asr #1
     c30:	0153c106 	cmpeq	r3, r6, lsl #2
     c34:	101c0000 	andsne	r0, ip, r0
     c38:	00000162 	andeq	r0, r0, r2, ror #2
     c3c:	05a3c306 	streq	ip, [r3, #774]!	; 0x306
     c40:	10200000 	eorne	r0, r0, r0
     c44:	0000027c 	andeq	r0, r0, ip, ror r2
     c48:	05c7c506 	strbeq	ip, [r7, #1286]	; 0x506
     c4c:	10240000 	eorne	r0, r4, r0
     c50:	000003e1 	andeq	r0, r0, r1, ror #7
     c54:	05ebc806 	strbeq	ip, [fp, #2054]!	; 0x806
     c58:	10280000 	eorne	r0, r8, r0
     c5c:	000004ba 			; <UNDEFINED> instruction: 0x000004ba
     c60:	0605c906 	streq	ip, [r5], -r6, lsl #18
     c64:	132c0000 			; <UNDEFINED> instruction: 0x132c0000
     c68:	0062755f 	rsbeq	r7, r2, pc, asr r5
     c6c:	02edcc06 	rsceq	ip, sp, #1536	; 0x600
     c70:	13300000 	teqne	r0, #0
     c74:	0070755f 	rsbseq	r7, r0, pc, asr r5
     c78:	0312cd06 	tsteq	r2, #384	; 0x180
     c7c:	13380000 	teqne	r8, #0
     c80:	0072755f 	rsbseq	r7, r2, pc, asr r5
     c84:	0062ce06 	rsbeq	ip, r2, r6, lsl #28
     c88:	103c0000 	eorsne	r0, ip, r0
     c8c:	000000a0 	andeq	r0, r0, r0, lsr #1
     c90:	060bd106 	streq	sp, [fp], -r6, lsl #2
     c94:	10400000 	subne	r0, r0, r0
     c98:	00000492 	muleq	r0, r2, r4
     c9c:	061bd206 	ldreq	sp, [fp], -r6, lsl #4
     ca0:	13430000 	movtne	r0, #12288	; 0x3000
     ca4:	00626c5f 	rsbeq	r6, r2, pc, asr ip
     ca8:	02edd506 	rsceq	sp, sp, #25165824	; 0x1800000
     cac:	10440000 	subne	r0, r4, r0
     cb0:	000000ef 	andeq	r0, r0, pc, ror #1
     cb4:	0062d806 	rsbeq	sp, r2, r6, lsl #16
     cb8:	104c0000 	subne	r0, ip, r0
     cbc:	00000100 	andeq	r0, r0, r0, lsl #2
     cc0:	00c4d906 	sbceq	sp, r4, r6, lsl #18
     cc4:	10500000 	subsne	r0, r0, r0
     cc8:	00000648 	andeq	r0, r0, r8, asr #12
     ccc:	0460dc06 	strbteq	sp, [r0], #-3078	; 0xfffff3fa
     cd0:	10540000 	subsne	r0, r4, r0
     cd4:	00000243 	andeq	r0, r0, r3, asr #4
     cd8:	0148e006 	cmpeq	r8, r6
     cdc:	10580000 	subsne	r0, r8, r0
     ce0:	00000377 	andeq	r0, r0, r7, ror r3
     ce4:	013de206 	teqeq	sp, r6, lsl #4
     ce8:	105c0000 	subsne	r0, ip, r0
     cec:	00000249 	andeq	r0, r0, r9, asr #4
     cf0:	0062e306 	rsbeq	lr, r2, r6, lsl #6
     cf4:	00640000 	rsbeq	r0, r4, r0
     cf8:	00006217 	andeq	r6, r0, r7, lsl r2
     cfc:	00046000 	andeq	r6, r4, r0
     d00:	04601800 	strbteq	r1, [r0], #-2048	; 0xfffff800
     d04:	53180000 	tstpl	r8, #0
     d08:	18000001 	stmdane	r0, {r0}
     d0c:	0000059d 	muleq	r0, sp, r5
     d10:	00006218 	andeq	r6, r0, r8, lsl r2
     d14:	04060000 	streq	r0, [r6], #-0
     d18:	0000046b 	andeq	r0, r0, fp, ror #8
     d1c:	00046003 	andeq	r6, r4, r3
     d20:	03c41900 	biceq	r1, r4, #0, 18
     d24:	04280000 	strteq	r0, [r8], #-0
     d28:	9d023806 	stcls	8, cr3, [r2, #-24]	; 0xffffffe8
     d2c:	1a000005 	bne	d48 <__code_start-0x2ffff2b8>
     d30:	00000335 	andeq	r0, r0, r5, lsr r3
     d34:	62023a06 	andvs	r3, r2, #24576	; 0x6000
     d38:	00000000 	andeq	r0, r0, r0
     d3c:	0000e81a 	andeq	lr, r0, sl, lsl r8
     d40:	023f0600 	eorseq	r0, pc, #0, 12
     d44:	00000672 	andeq	r0, r0, r2, ror r6
     d48:	017e1a04 	cmneq	lr, r4, lsl #20
     d4c:	3f060000 	svccc	0x00060000
     d50:	00067202 	andeq	r7, r6, r2, lsl #4
     d54:	431a0800 	tstmi	sl, #0, 16
     d58:	06000001 	streq	r0, [r0], -r1
     d5c:	0672023f 			; <UNDEFINED> instruction: 0x0672023f
     d60:	1a0c0000 	bne	300d68 <__code_start-0x2fcff298>
     d64:	00000398 	muleq	r0, r8, r3
     d68:	62024106 	andvs	r4, r2, #-2147483647	; 0x80000001
     d6c:	10000000 	andne	r0, r0, r0
     d70:	0000211a 	andeq	r2, r0, sl, lsl r1
     d74:	02420600 	subeq	r0, r2, #0, 12
     d78:	00000854 	andeq	r0, r0, r4, asr r8
     d7c:	04411a14 	strbeq	r1, [r1], #-2580	; 0xfffff5ec
     d80:	44060000 	strmi	r0, [r6], #-0
     d84:	00006202 	andeq	r6, r0, r2, lsl #4
     d88:	a21a3000 	andsge	r3, sl, #0
     d8c:	06000003 	streq	r0, [r0], -r3
     d90:	00820245 	addeq	r0, r2, r5, asr #4
     d94:	1a340000 	bne	d00d9c <__code_start-0x2f2ff264>
     d98:	000002f2 	strdeq	r0, [r0], -r2
     d9c:	62024706 	andvs	r4, r2, #1572864	; 0x180000
     da0:	38000000 	stmdacc	r0, {}	; <UNPREDICTABLE>
     da4:	0003b21a 	andeq	fp, r3, sl, lsl r2
     da8:	02490600 	subeq	r0, r9, #0, 12
     dac:	0000086f 	andeq	r0, r0, pc, ror #16
     db0:	01d71a3c 	bicseq	r1, r7, ip, lsr sl
     db4:	4c060000 	stcmi	0, cr0, [r6], {-0}
     db8:	0001b302 	andeq	fp, r1, r2, lsl #6
     dbc:	681a4000 	ldmdavs	sl, {lr}
     dc0:	06000001 	streq	r0, [r0], -r1
     dc4:	0062024d 	rsbeq	r0, r2, sp, asr #4
     dc8:	1a440000 	bne	1100dd0 <__code_start-0x2eeff230>
     dcc:	000004d4 	ldrdeq	r0, [r0], -r4
     dd0:	b3024e06 	movwlt	r4, #11782	; 0x2e06
     dd4:	48000001 	stmdami	r0, {r0}
     dd8:	0003041a 	andeq	r0, r3, sl, lsl r4
     ddc:	024f0600 	subeq	r0, pc, #0, 12
     de0:	00000875 	andeq	r0, r0, r5, ror r8
     de4:	01861a4c 	orreq	r1, r6, ip, asr #20
     de8:	52060000 	andpl	r0, r6, #0
     dec:	00006202 	andeq	r6, r0, r2, lsl #4
     df0:	f81a5000 			; <UNDEFINED> instruction: 0xf81a5000
     df4:	06000000 	streq	r0, [r0], -r0
     df8:	059d0253 	ldreq	r0, [sp, #595]	; 0x253
     dfc:	1a540000 	bne	1500e04 <__code_start-0x2eaff1fc>
     e00:	0000032e 	andeq	r0, r0, lr, lsr #6
     e04:	32027606 	andcc	r7, r2, #6291456	; 0x600000
     e08:	58000008 	stmdapl	r0, {r3}
     e0c:	0002ea1b 	andeq	lr, r2, fp, lsl sl
     e10:	027a0600 	rsbseq	r0, sl, #0, 12
     e14:	000002d0 	ldrdeq	r0, [r0], -r0	; <UNPREDICTABLE>
     e18:	ae1b0148 	mufgeem	f0, f3, #0.0
     e1c:	06000001 	streq	r0, [r0], -r1
     e20:	0292027b 	addseq	r0, r2, #-1342177273	; 0xb0000007
     e24:	014c0000 	mrseq	r0, (UNDEF: 76)
     e28:	0004881b 	andeq	r8, r4, fp, lsl r8
     e2c:	027f0600 	rsbseq	r0, pc, #0, 12
     e30:	00000886 	andeq	r0, r0, r6, lsl #17
     e34:	d11b02dc 			; <UNDEFINED> instruction: 0xd11b02dc
     e38:	06000000 	streq	r0, [r0], -r0
     e3c:	06370284 	ldrteq	r0, [r7], -r4, lsl #5
     e40:	02e00000 	rsceq	r0, r0, #0
     e44:	0000b61b 	andeq	fp, r0, fp, lsl r6
     e48:	02850600 	addeq	r0, r5, #0, 12
     e4c:	00000892 	muleq	r0, r2, r8
     e50:	060002ec 	streq	r0, [r0], -ip, ror #5
     e54:	00009204 	andeq	r9, r0, r4, lsl #4
     e58:	42040600 	andmi	r0, r4, #0, 12
     e5c:	17000004 	strne	r0, [r0, -r4]
     e60:	00000062 	andeq	r0, r0, r2, rrx
     e64:	000005c7 	andeq	r0, r0, r7, asr #11
     e68:	00046018 	andeq	r6, r4, r8, lsl r0
     e6c:	01531800 	cmpeq	r3, r0, lsl #16
     e70:	82180000 	andshi	r0, r8, #0
     e74:	18000000 	stmdane	r0, {}	; <UNPREDICTABLE>
     e78:	00000062 	andeq	r0, r0, r2, rrx
     e7c:	a9040600 	stmdbge	r4, {r9, sl}
     e80:	17000005 	strne	r0, [r0, -r5]
     e84:	000000cf 	andeq	r0, r0, pc, asr #1
     e88:	000005eb 	andeq	r0, r0, fp, ror #11
     e8c:	00046018 	andeq	r6, r4, r8, lsl r0
     e90:	01531800 	cmpeq	r3, r0, lsl #16
     e94:	cf180000 	svcgt	0x00180000
     e98:	18000000 	stmdane	r0, {}	; <UNPREDICTABLE>
     e9c:	00000062 	andeq	r0, r0, r2, rrx
     ea0:	cd040600 	stcgt	6, cr0, [r4, #-0]
     ea4:	17000005 	strne	r0, [r0, -r5]
     ea8:	00000062 	andeq	r0, r0, r2, rrx
     eac:	00000605 	andeq	r0, r0, r5, lsl #12
     eb0:	00046018 	andeq	r6, r4, r8, lsl r0
     eb4:	01531800 	cmpeq	r3, r0, lsl #16
     eb8:	06000000 	streq	r0, [r0], -r0
     ebc:	0005f104 	andeq	pc, r5, r4, lsl #2
     ec0:	002c0800 	eoreq	r0, ip, r0, lsl #16
     ec4:	061b0000 	ldreq	r0, [fp], -r0
     ec8:	150e0000 	strne	r0, [lr, #-0]
     ecc:	02000001 	andeq	r0, r0, #1
     ed0:	002c0800 	eoreq	r0, ip, r0, lsl #16
     ed4:	062b0000 	strteq	r0, [fp], -r0
     ed8:	150e0000 	strne	r0, [lr, #-0]
     edc:	00000001 	andeq	r0, r0, r1
     ee0:	035d0b00 	cmpeq	sp, #0, 22
     ee4:	1d060000 	stcne	0, cr0, [r6, #-0]
     ee8:	00031801 	andeq	r1, r3, r1, lsl #16
     eec:	046f1c00 	strbteq	r1, [pc], #-3072	; ef4 <__code_start-0x2ffff10c>
     ef0:	060c0000 	streq	r0, [ip], -r0
     ef4:	066c0121 	strbteq	r0, [ip], -r1, lsr #2
     ef8:	851a0000 	ldrhi	r0, [sl, #-0]
     efc:	06000003 	streq	r0, [r0], -r3
     f00:	066c0123 	strbteq	r0, [ip], -r3, lsr #2
     f04:	1a000000 	bne	f0c <__code_start-0x2ffff0f4>
     f08:	00000194 	muleq	r0, r4, r1
     f0c:	62012406 	andvs	r2, r1, #100663296	; 0x6000000
     f10:	04000000 	streq	r0, [r0], #-0
     f14:	0003571a 	andeq	r5, r3, sl, lsl r7
     f18:	01250600 			; <UNDEFINED> instruction: 0x01250600
     f1c:	00000672 	andeq	r0, r0, r2, ror r6
     f20:	04060008 	streq	r0, [r6], #-8
     f24:	00000637 	andeq	r0, r0, r7, lsr r6
     f28:	062b0406 	strteq	r0, [fp], -r6, lsl #8
     f2c:	191c0000 	ldmdbne	ip, {}	; <UNPREDICTABLE>
     f30:	0e000000 	cdpeq	0, 0, cr0, cr0, cr0, {0}
     f34:	ad013d06 	stcge	13, cr3, [r1, #-24]	; 0xffffffe8
     f38:	1a000006 	bne	f58 <__code_start-0x2ffff0a8>
     f3c:	000003cb 	andeq	r0, r0, fp, asr #7
     f40:	ad013e06 	stcge	14, cr3, [r1, #-24]	; 0xffffffe8
     f44:	00000006 	andeq	r0, r0, r6
     f48:	0003f81a 	andeq	pc, r3, sl, lsl r8	; <UNPREDICTABLE>
     f4c:	013f0600 	teqeq	pc, r0, lsl #12
     f50:	000006ad 	andeq	r0, r0, sp, lsr #13
     f54:	04141a06 	ldreq	r1, [r4], #-2566	; 0xfffff5fa
     f58:	40060000 	andmi	r0, r6, r0
     f5c:	00003f01 	andeq	r3, r0, r1, lsl #30
     f60:	08000c00 	stmdaeq	r0, {sl, fp}
     f64:	0000003f 	andeq	r0, r0, pc, lsr r0
     f68:	000006bd 			; <UNDEFINED> instruction: 0x000006bd
     f6c:	0001150e 	andeq	r1, r1, lr, lsl #10
     f70:	1d000200 	sfmne	f0, 4, [r0, #-0]
     f74:	025706d0 	subseq	r0, r7, #208, 12	; 0xd000000
     f78:	000007be 			; <UNDEFINED> instruction: 0x000007be
     f7c:	0004531a 	andeq	r5, r4, sl, lsl r3
     f80:	02590600 	subseq	r0, r9, #0, 12
     f84:	00000069 	andeq	r0, r0, r9, rrx
     f88:	03fe1a00 	mvnseq	r1, #0, 20
     f8c:	5a060000 	bpl	180f94 <__code_start-0x2fe7f06c>
     f90:	00059d02 	andeq	r9, r5, r2, lsl #26
     f94:	c31a0400 	tstgt	sl, #0, 8
     f98:	06000001 	streq	r0, [r0], -r1
     f9c:	07be025b 	sbfxeq	r0, fp, #4, #31
     fa0:	1a080000 	bne	200fa8 <__code_start-0x2fdff058>
     fa4:	000004ab 	andeq	r0, r0, fp, lsr #9
     fa8:	c9025c06 	stmdbgt	r2, {r1, r2, sl, fp, ip, lr}
     fac:	24000001 	strcs	r0, [r0], #-1
     fb0:	0001531a 	andeq	r5, r1, sl, lsl r3
     fb4:	025d0600 	subseq	r0, sp, #0, 12
     fb8:	00000062 	andeq	r0, r0, r2, rrx
     fbc:	03801a48 	orreq	r1, r0, #72, 20	; 0x48000
     fc0:	5e060000 	cdppl	0, 0, cr0, cr6, cr0, {0}
     fc4:	00005b02 	andeq	r5, r0, r2, lsl #22
     fc8:	c11a5000 	tstgt	sl, r0
     fcc:	06000004 	streq	r0, [r0], -r4
     fd0:	0678025f 			; <UNDEFINED> instruction: 0x0678025f
     fd4:	1a580000 	bne	1600fdc <__code_start-0x2e9ff024>
     fd8:	0000038b 	andeq	r0, r0, fp, lsl #7
     fdc:	3d026006 	stccc	0, cr6, [r2, #-24]	; 0xffffffe8
     fe0:	68000001 	stmdavs	r0, {r0}
     fe4:	0004c61a 	andeq	ip, r4, sl, lsl r6
     fe8:	02610600 	rsbeq	r0, r1, #0, 12
     fec:	0000013d 	andeq	r0, r0, sp, lsr r1
     ff0:	007b1a70 	rsbseq	r1, fp, r0, ror sl
     ff4:	62060000 	andvs	r0, r6, #0
     ff8:	00013d02 	andeq	r3, r1, r2, lsl #26
     ffc:	7e1a7800 	cdpvc	8, 1, cr7, cr10, cr0, {0}
    1000:	06000004 	streq	r0, [r0], -r4
    1004:	07ce0263 	strbeq	r0, [lr, r3, ror #4]
    1008:	1a800000 	bne	fe001010 <_end+0xcdfff118>
    100c:	000001b7 			; <UNDEFINED> instruction: 0x000001b7
    1010:	de026406 	cdple	4, 0, cr6, cr2, cr6, {0}
    1014:	88000007 	stmdahi	r0, {r0, r1, r2}
    1018:	0004211a 	andeq	r2, r4, sl, lsl r1
    101c:	02650600 	rsbeq	r0, r5, #0, 12
    1020:	00000062 	andeq	r0, r0, r2, rrx
    1024:	01191aa0 	tsteq	r9, r0, lsr #21
    1028:	66060000 	strvs	r0, [r6], -r0
    102c:	00013d02 	andeq	r3, r1, r2, lsl #26
    1030:	6c1aa400 	cfldrsvs	mvf10, [sl], {-0}
    1034:	06000000 	streq	r0, [r0], -r0
    1038:	013d0267 	teqeq	sp, r7, ror #4
    103c:	1aac0000 	bne	feb01044 <_end+0xceaff14c>
    1040:	00000108 	andeq	r0, r0, r8, lsl #2
    1044:	3d026806 	stccc	8, cr6, [r2, #-24]	; 0xffffffe8
    1048:	b4000001 	strlt	r0, [r0], #-1
    104c:	00002c1a 	andeq	r2, r0, sl, lsl ip
    1050:	02690600 	rsbeq	r0, r9, #0, 12
    1054:	0000013d 	andeq	r0, r0, sp, lsr r1
    1058:	003b1abc 	ldrhteq	r1, [fp], -ip
    105c:	6a060000 	bvs	181064 <__code_start-0x2fe7ef9c>
    1060:	00013d02 	andeq	r3, r1, r2, lsl #26
    1064:	331ac400 	tstcc	sl, #0, 8
    1068:	06000003 	streq	r0, [r0], -r3
    106c:	0062026b 	rsbeq	r0, r2, fp, ror #4
    1070:	00cc0000 	sbceq	r0, ip, r0
    1074:	00009208 	andeq	r9, r0, r8, lsl #4
    1078:	0007ce00 	andeq	ip, r7, r0, lsl #28
    107c:	01150e00 	tsteq	r5, r0, lsl #28
    1080:	00190000 	andseq	r0, r9, r0
    1084:	00009208 	andeq	r9, r0, r8, lsl #4
    1088:	0007de00 	andeq	sp, r7, r0, lsl #28
    108c:	01150e00 	tsteq	r5, r0, lsl #28
    1090:	00070000 	andeq	r0, r7, r0
    1094:	00009208 	andeq	r9, r0, r8, lsl #4
    1098:	0007ee00 	andeq	lr, r7, r0, lsl #28
    109c:	01150e00 	tsteq	r5, r0, lsl #28
    10a0:	00170000 	andseq	r0, r7, r0
    10a4:	7006f01d 	andvc	pc, r6, sp, lsl r0	; <UNPREDICTABLE>
    10a8:	00081202 	andeq	r1, r8, r2, lsl #4
    10ac:	02a21a00 	adceq	r1, r2, #0, 20
    10b0:	73060000 	movwvc	r0, #24576	; 0x6000
    10b4:	00081202 	andeq	r1, r8, r2, lsl #4
    10b8:	751a0000 	ldrvc	r0, [sl, #-0]
    10bc:	06000004 	streq	r0, [r0], -r4
    10c0:	08220274 	stmdaeq	r2!, {r2, r4, r5, r6, r9}
    10c4:	00780000 	rsbseq	r0, r8, r0
    10c8:	00031208 	andeq	r1, r3, r8, lsl #4
    10cc:	00082200 	andeq	r2, r8, r0, lsl #4
    10d0:	01150e00 	tsteq	r5, r0, lsl #28
    10d4:	001d0000 	andseq	r0, sp, r0
    10d8:	00006908 	andeq	r6, r0, r8, lsl #18
    10dc:	00083200 	andeq	r3, r8, r0, lsl #4
    10e0:	01150e00 	tsteq	r5, r0, lsl #28
    10e4:	001d0000 	andseq	r0, sp, r0
    10e8:	5506f01e 	strpl	pc, [r6, #-30]	; 0xffffffe2
    10ec:	00085402 	andeq	r5, r8, r2, lsl #8
    10f0:	03c41f00 	biceq	r1, r4, #0, 30
    10f4:	6c060000 	stcvs	0, cr0, [r6], {-0}
    10f8:	0006bd02 	andeq	fp, r6, r2, lsl #26
    10fc:	04981f00 	ldreq	r1, [r8], #3840	; 0xf00
    1100:	75060000 	strvc	r0, [r6, #-0]
    1104:	0007ee02 	andeq	lr, r7, r2, lsl #28
    1108:	92080000 	andls	r0, r8, #0
    110c:	64000000 	strvs	r0, [r0], #-0
    1110:	0e000008 	cdpeq	0, 0, cr0, cr0, cr8, {0}
    1114:	00000115 	andeq	r0, r0, r5, lsl r1
    1118:	6f200018 	svcvs	0x00200018
    111c:	18000008 	stmdane	r0, {r3}
    1120:	00000460 	andeq	r0, r0, r0, ror #8
    1124:	64040600 	strvs	r0, [r4], #-1536	; 0xfffffa00
    1128:	06000008 	streq	r0, [r0], -r8
    112c:	0001b304 	andeq	fp, r1, r4, lsl #6
    1130:	08862000 	stmeq	r6, {sp}
    1134:	62180000 	andsvs	r0, r8, #0
    1138:	00000000 	andeq	r0, r0, r0
    113c:	088c0406 	stmeq	ip, {r1, r2, sl}
    1140:	04060000 	streq	r0, [r6], #-0
    1144:	0000087b 	andeq	r0, r0, fp, ror r8
    1148:	00062b08 	andeq	r2, r6, r8, lsl #22
    114c:	0008a200 	andeq	sl, r8, r0, lsl #4
    1150:	01150e00 	tsteq	r5, r0, lsl #28
    1154:	00020000 	andeq	r0, r2, r0
    1158:	00043521 	andeq	r3, r4, r1, lsr #10
    115c:	02fd0600 	rscseq	r0, sp, #0, 12
    1160:	00000460 	andeq	r0, r0, r0, ror #8
    1164:	00042e21 	andeq	r2, r4, r1, lsr #28
    1168:	02fe0600 	rscseq	r0, lr, #0, 12
    116c:	00000466 	andeq	r0, r0, r6, ror #8
    1170:	00008808 	andeq	r8, r0, r8, lsl #16
    1174:	0008c500 	andeq	ip, r8, r0, lsl #10
    1178:	03000900 	movweq	r0, #2304	; 0x900
    117c:	000008ba 			; <UNDEFINED> instruction: 0x000008ba
    1180:	00055405 	andeq	r5, r5, r5, lsl #8
    1184:	c5140700 	ldrgt	r0, [r4, #-1792]	; 0xfffff900
    1188:	05000008 	streq	r0, [r0, #-8]
    118c:	000005a7 	andeq	r0, r0, r7, lsr #11
    1190:	00621507 	rsbeq	r1, r2, r7, lsl #10
    1194:	6d050000 	stcvs	0, cr0, [r5, #-0]
    1198:	08000005 	stmdaeq	r0, {r0, r2}
    119c:	00059d5f 	andeq	r9, r5, pc, asr sp
    11a0:	054d2200 	strbeq	r2, [sp, #-512]	; 0xfffffe00
    11a4:	9f080000 	svcls	0x00080000
    11a8:	00000046 	andeq	r0, r0, r6, asr #32
    11ac:	300014c8 	andcc	r1, r0, r8, asr #9
    11b0:	0000001c 	andeq	r0, r0, ip, lsl r0
    11b4:	094f9c01 	stmdbeq	pc, {r0, sl, fp, ip, pc}^	; <UNPREDICTABLE>
    11b8:	73230000 			; <UNDEFINED> instruction: 0x73230000
    11bc:	8dda0100 	ldfhie	f0, [sl]
    11c0:	21000000 	mrscs	r0, (UNDEF: 0)
    11c4:	23000000 	movwcs	r0, #0
    11c8:	00727470 	rsbseq	r7, r2, r0, ror r4
    11cc:	0955da01 	ldmdbeq	r5, {r0, r9, fp, ip, lr, pc}^
    11d0:	004d0000 	subeq	r0, sp, r0
    11d4:	a7240000 	strge	r0, [r4, -r0]!
    11d8:	01000000 	mrseq	r0, (UNDEF: 0)
    11dc:	000062da 	ldrdeq	r6, [r0], -sl
    11e0:	00007900 	andeq	r7, r0, r0, lsl #18
    11e4:	14e02500 	strbtne	r2, [r0], #1280	; 0x500
    11e8:	095a3000 	ldmdbeq	sl, {ip, sp}^
    11ec:	01260000 			; <UNDEFINED> instruction: 0x01260000
    11f0:	01f30351 	mvnseq	r0, r1, asr r3
    11f4:	52012650 	andpl	r2, r1, #80, 12	; 0x5000000
    11f8:	5101f303 	tstpl	r1, r3, lsl #6	; <UNPREDICTABLE>
    11fc:	03530126 	cmpeq	r3, #-2147483639	; 0x80000009
    1200:	005201f3 	ldrsheq	r0, [r2], #-19	; 0xffffffed
    1204:	9d040600 	stcls	6, cr0, [r4, #-0]
    1208:	07000005 	streq	r0, [r0, -r5]
    120c:	0000094f 	andeq	r0, r0, pc, asr #18
    1210:	0004e327 	andeq	lr, r4, r7, lsr #6
    1214:	46a00800 	strtmi	r0, [r0], r0, lsl #16
    1218:	90000000 	andls	r0, r0, r0
    121c:	38300012 	ldmdacc	r0!, {r1, r4}
    1220:	01000002 	tsteq	r0, r2
    1224:	000a159c 	muleq	sl, ip, r5
    1228:	05682400 	strbeq	r2, [r8, #-1024]!	; 0xfffffc00
    122c:	86010000 	strhi	r0, [r1], -r0
    1230:	00000460 	andeq	r0, r0, r0, ror #8
    1234:	000000a5 	andeq	r0, r0, r5, lsr #1
    1238:	00057724 	andeq	r7, r5, r4, lsr #14
    123c:	8d860100 	stfhis	f0, [r6]
    1240:	e6000000 	str	r0, [r0], -r0
    1244:	24000000 	strcs	r0, [r0], #-0
    1248:	00000561 	andeq	r0, r0, r1, ror #10
    124c:	09558601 	ldmdbeq	r5, {r0, r9, sl, pc}^
    1250:	01100000 	tsteq	r0, r0
    1254:	a7240000 	strge	r0, [r4, -r0]!
    1258:	01000000 	mrseq	r0, (UNDEF: 0)
    125c:	00006286 	andeq	r6, r0, r6, lsl #5
    1260:	00014700 	andeq	r4, r1, r0, lsl #14
    1264:	00732800 	rsbseq	r2, r3, r0, lsl #16
    1268:	0a158c01 	beq	564274 <__code_start-0x2fa9bd8c>
    126c:	01c70000 	biceq	r0, r7, r0
    1270:	61280000 			; <UNDEFINED> instruction: 0x61280000
    1274:	01006363 	tsteq	r0, r3, ror #6
    1278:	00004d8d 	andeq	r4, r0, sp, lsl #27
    127c:	00023f00 	andeq	r3, r2, r0, lsl #30
    1280:	00632800 	rsbeq	r2, r3, r0, lsl #16
    1284:	00628e01 	rsbeq	r8, r2, r1, lsl #28
    1288:	029a0000 	addseq	r0, sl, #0
    128c:	c0290000 	eorgt	r0, r9, r0
    1290:	01000005 	tsteq	r0, r5
    1294:	00004d8f 	andeq	r4, r0, pc, lsl #27
    1298:	00035900 	andeq	r5, r3, r0, lsl #18
    129c:	656e2800 	strbvs	r2, [lr, #-2048]!	; 0xfffff800
    12a0:	90010067 	andls	r0, r1, r7, rrx
    12a4:	00000062 	andeq	r0, r0, r2, rrx
    12a8:	0000038d 	andeq	r0, r0, sp, lsl #7
    12ac:	796e6128 	stmdbvc	lr!, {r3, r5, r8, sp, lr}^
    12b0:	62900100 	addsvs	r0, r0, #0, 2
    12b4:	d1000000 	mrsle	r0, (UNDEF: 0)
    12b8:	29000003 	stmdbcs	r0, {r0, r1}
    12bc:	000005b9 			; <UNDEFINED> instruction: 0x000005b9
    12c0:	00629001 	rsbeq	r9, r2, r1
    12c4:	04120000 	ldreq	r0, [r2], #-0
    12c8:	06000000 	streq	r0, [r0], -r0
    12cc:	00003304 	andeq	r3, r0, r4, lsl #6
    12d0:	00bc0000 	adcseq	r0, ip, r0
    12d4:	00040000 	andeq	r0, r4, r0
    12d8:	000003be 			; <UNDEFINED> instruction: 0x000003be
    12dc:	02510104 	subseq	r0, r1, #4, 2
    12e0:	c70c0000 	strgt	r0, [ip, -r0]
    12e4:	f1000005 	cps	#5
    12e8:	50000005 	andpl	r0, r0, r5
    12ec:	02000003 	andeq	r0, r0, #3
    12f0:	03220601 			; <UNDEFINED> instruction: 0x03220601
    12f4:	01020000 	mrseq	r0, (UNDEF: 2)
    12f8:	00032008 	andeq	r2, r3, r8
    12fc:	05020200 	streq	r0, [r2, #-512]	; 0xfffffe00
    1300:	0000033c 	andeq	r0, r0, ip, lsr r3
    1304:	9b070202 	blls	1c1b14 <__code_start-0x2fe3e4ec>
    1308:	02000001 	andeq	r0, r0, #1
    130c:	00970504 	addseq	r0, r7, r4, lsl #10
    1310:	04020000 	streq	r0, [r2], #-0
    1314:	00005107 	andeq	r5, r0, r7, lsl #2
    1318:	05080200 	streq	r0, [r8, #-512]	; 0xfffffe00
    131c:	00000092 	muleq	r0, r2, r0
    1320:	4c070802 	stcmi	8, cr0, [r7], {2}
    1324:	03000000 	movweq	r0, #0
    1328:	6e690504 	cdpvs	5, 6, cr0, cr9, cr4, {0}
    132c:	04020074 	streq	r0, [r2], #-116	; 0xffffff8c
    1330:	00005607 	andeq	r5, r0, r7, lsl #12
    1334:	04080200 	streq	r0, [r8], #-512	; 0xfffffe00
    1338:	00000296 	muleq	r0, r6, r2
    133c:	00053f04 	andeq	r3, r5, r4, lsl #30
    1340:	752e0100 	strvc	r0, [lr, #-256]!	; 0xffffff00
    1344:	05000000 	streq	r0, [r0, #-0]
    1348:	00008204 	andeq	r8, r0, r4, lsl #4
    134c:	08010200 	stmdaeq	r1, {r9}
    1350:	00000329 	andeq	r0, r0, r9, lsr #6
    1354:	00007b06 	andeq	r7, r0, r6, lsl #22
    1358:	00820700 	addeq	r0, r2, r0, lsl #14
    135c:	00920000 	addseq	r0, r2, r0
    1360:	00080000 	andeq	r0, r8, r0
    1364:	00008706 	andeq	r8, r0, r6, lsl #14
    1368:	05b10400 	ldreq	r0, [r1, #1024]!	; 0x400
    136c:	6e010000 	cdpvs	0, 0, cr0, cr1, cr0, {0}
    1370:	00000092 	muleq	r0, r2, r0
    1374:	8d070402 	cfstrshi	mvf0, [r7, #-8]
    1378:	09000002 	stmdbeq	r0, {r1}
    137c:	00000097 	muleq	r0, r7, r0
    1380:	15fc0305 	ldrbne	r0, [ip, #773]!	; 0x305
    1384:	6a093000 	bvs	24d38c <__code_start-0x2fdb2c74>
    1388:	05000000 	streq	r0, [r0, #-0]
    138c:	001a3c03 	andseq	r3, sl, r3, lsl #24
    1390:	08a10030 	stmiaeq	r1!, {r4, r5}
    1394:	00040000 	andeq	r0, r4, r0
    1398:	0000041c 	andeq	r0, r0, ip, lsl r4
    139c:	02510104 	subseq	r0, r1, #4, 2
    13a0:	9f0c0000 	svcls	0x000c0000
    13a4:	4e000006 	cdpmi	0, 0, cr0, cr0, cr6, {0}
    13a8:	b7000006 	strlt	r0, [r0, -r6]
    13ac:	02000003 	andeq	r0, r0, #3
    13b0:	6e690504 	cdpvs	5, 6, cr0, cr9, cr4, {0}
    13b4:	04030074 	streq	r0, [r3], #-116	; 0xffffff8c
    13b8:	00005607 	andeq	r5, r0, r7, lsl #12
    13bc:	05080300 	streq	r0, [r8, #-768]	; 0xfffffd00
    13c0:	00000092 	muleq	r0, r2, r0
    13c4:	96040803 	strls	r0, [r4], -r3, lsl #16
    13c8:	03000002 	movweq	r0, #2
    13cc:	03220601 			; <UNDEFINED> instruction: 0x03220601
    13d0:	01030000 	mrseq	r0, (UNDEF: 3)
    13d4:	00032008 	andeq	r2, r3, r8
    13d8:	05020300 	streq	r0, [r2, #-768]	; 0xfffffd00
    13dc:	0000033c 	andeq	r0, r0, ip, lsr r3
    13e0:	9b070203 	blls	1c1bf4 <__code_start-0x2fe3e40c>
    13e4:	03000001 	movweq	r0, #1
    13e8:	00970504 	addseq	r0, r7, r4, lsl #10
    13ec:	04030000 	streq	r0, [r3], #-0
    13f0:	00005107 	andeq	r5, r0, r7, lsl #2
    13f4:	07080300 	streq	r0, [r8, -r0, lsl #6]
    13f8:	0000004c 	andeq	r0, r0, ip, asr #32
    13fc:	00030e04 	andeq	r0, r3, r4, lsl #28
    1400:	1d070100 	stfnes	f0, [r7, #-0]
    1404:	04000000 	streq	r0, [r0], #-0
    1408:	000002fd 	strdeq	r0, [r0], -sp
    140c:	00552c02 	subseq	r2, r5, r2, lsl #24
    1410:	e7040000 	str	r0, [r4, -r0]
    1414:	02000003 	andeq	r0, r0, #3
    1418:	00005572 	andeq	r5, r0, r2, ror r5
    141c:	01e50500 	mvneq	r0, r0, lsl #10
    1420:	65030000 	strvs	r0, [r3, #-0]
    1424:	00002401 	andeq	r2, r0, r1, lsl #8
    1428:	02040600 	andeq	r0, r4, #0, 12
    142c:	0000b6a6 	andeq	fp, r0, r6, lsr #13
    1430:	01df0700 	bicseq	r0, pc, r0, lsl #14
    1434:	a8020000 	stmdage	r2, {}	; <UNPREDICTABLE>
    1438:	0000008b 	andeq	r0, r0, fp, lsl #1
    143c:	00017707 	andeq	r7, r1, r7, lsl #14
    1440:	b6a90200 	strtlt	r0, [r9], r0, lsl #4
    1444:	00000000 	andeq	r0, r0, r0
    1448:	00004008 	andeq	r4, r0, r8
    144c:	0000c600 	andeq	ip, r0, r0, lsl #12
    1450:	00c60900 	sbceq	r0, r6, r0, lsl #18
    1454:	00030000 	andeq	r0, r3, r0
    1458:	8d070403 	cfstrshi	mvf0, [r7, #-12]
    145c:	0a000002 	beq	146c <__code_start-0x2fffeb94>
    1460:	eea30208 	cdp	2, 10, cr0, cr3, cr8, {0}
    1464:	0b000000 	bleq	146c <__code_start-0x2fffeb94>
    1468:	000003d1 	ldrdeq	r0, [r0], -r1
    146c:	001da502 	andseq	sl, sp, r2, lsl #10
    1470:	0b000000 	bleq	1478 <__code_start-0x2fffeb88>
    1474:	000003d9 	ldrdeq	r0, [r0], -r9
    1478:	0097aa02 	addseq	sl, r7, r2, lsl #20
    147c:	00040000 	andeq	r0, r4, r0
    1480:	00036404 	andeq	r6, r3, r4, lsl #8
    1484:	cdab0200 	sfmgt	f0, 4, [fp]
    1488:	04000000 	streq	r0, [r0], #-0
    148c:	0000013a 	andeq	r0, r0, sl, lsr r1
    1490:	006aaf02 	rsbeq	sl, sl, r2, lsl #30
    1494:	040c0000 	streq	r0, [ip], #-0
    1498:	010c040d 	tsteq	ip, sp, lsl #8
    149c:	01030000 	mrseq	r0, (UNDEF: 3)
    14a0:	00032908 	andeq	r2, r3, r8, lsl #18
    14a4:	010c0e00 	tsteq	ip, r0, lsl #28
    14a8:	19040000 	stmdbne	r4, {}	; <UNPREDICTABLE>
    14ac:	04000004 	streq	r0, [r0], #-4
    14b0:	00005c16 	andeq	r5, r0, r6, lsl ip
    14b4:	014b0f00 	cmpeq	fp, r0, lsl #30
    14b8:	04180000 	ldreq	r0, [r8], #-0
    14bc:	0001762d 	andeq	r7, r1, sp, lsr #12
    14c0:	03850b00 	orreq	r0, r5, #0, 22
    14c4:	2f040000 	svccs	0x00040000
    14c8:	00000176 	andeq	r0, r0, r6, ror r1
    14cc:	6b5f1000 	blvs	17c54d4 <__code_start-0x2e83ab2c>
    14d0:	1d300400 	cfldrsne	mvf0, [r0, #-0]
    14d4:	04000000 	streq	r0, [r0], #-0
    14d8:	0003bc0b 	andeq	fp, r3, fp, lsl #24
    14dc:	1d300400 	cfldrsne	mvf0, [r0, #-0]
    14e0:	08000000 	stmdaeq	r0, {}	; <UNPREDICTABLE>
    14e4:	0001340b 	andeq	r3, r1, fp, lsl #8
    14e8:	1d300400 	cfldrsne	mvf0, [r0, #-0]
    14ec:	0c000000 	stceq	0, cr0, [r0], {-0}
    14f0:	0004600b 	andeq	r6, r4, fp
    14f4:	1d300400 	cfldrsne	mvf0, [r0, #-0]
    14f8:	10000000 	andne	r0, r0, r0
    14fc:	00785f10 	rsbseq	r5, r8, r0, lsl pc
    1500:	017c3104 	cmneq	ip, r4, lsl #2
    1504:	00140000 	andseq	r0, r4, r0
    1508:	0123040d 			; <UNDEFINED> instruction: 0x0123040d
    150c:	18080000 	stmdane	r8, {}	; <UNPREDICTABLE>
    1510:	8c000001 	stchi	0, cr0, [r0], {1}
    1514:	09000001 	stmdbeq	r0, {r0}
    1518:	000000c6 	andeq	r0, r0, r6, asr #1
    151c:	720f0000 	andvc	r0, pc, #0
    1520:	24000001 	strcs	r0, [r0], #-1
    1524:	02053504 	andeq	r3, r5, #4, 10	; 0x1000000
    1528:	890b0000 	stmdbhi	fp, {}	; <UNPREDICTABLE>
    152c:	04000000 	streq	r0, [r0], #-0
    1530:	00001d37 	andeq	r1, r0, r7, lsr sp
    1534:	ef0b0000 	svc	0x000b0000
    1538:	04000003 	streq	r0, [r0], #-3
    153c:	00001d38 	andeq	r1, r0, r8, lsr sp
    1540:	ac0b0400 	cfstrsge	mvf0, [fp], {-0}
    1544:	04000000 	streq	r0, [r0], #-0
    1548:	00001d39 	andeq	r1, r0, r9, lsr sp
    154c:	d90b0800 	stmdble	fp, {fp}
    1550:	04000004 	streq	r0, [r0], #-4
    1554:	00001d3a 	andeq	r1, r0, sl, lsr sp
    1558:	e10b0c00 	tst	fp, r0, lsl #24
    155c:	04000002 	streq	r0, [r0], #-2
    1560:	00001d3b 	andeq	r1, r0, fp, lsr sp
    1564:	830b1000 	movwhi	r1, #45056	; 0xb000
    1568:	04000002 	streq	r0, [r0], #-2
    156c:	00001d3c 	andeq	r1, r0, ip, lsr sp
    1570:	650b1400 	strvs	r1, [fp, #-1024]	; 0xfffffc00
    1574:	04000004 	streq	r0, [r0], #-4
    1578:	00001d3d 	andeq	r1, r0, sp, lsr sp
    157c:	460b1800 	strmi	r1, [fp], -r0, lsl #16
    1580:	04000003 	streq	r0, [r0], #-3
    1584:	00001d3e 	andeq	r1, r0, lr, lsr sp
    1588:	a00b1c00 	andge	r1, fp, r0, lsl #24
    158c:	04000004 	streq	r0, [r0], #-4
    1590:	00001d3f 	andeq	r1, r0, pc, lsr sp
    1594:	11002000 	mrsne	r2, (UNDEF: 0)
    1598:	000000bb 	strheq	r0, [r0], -fp
    159c:	48040108 	stmdami	r4, {r3, r8}
    15a0:	00000245 	andeq	r0, r0, r5, asr #4
    15a4:	0001270b 	andeq	r2, r1, fp, lsl #14
    15a8:	45490400 	strbmi	r0, [r9, #-1024]	; 0xfffffc00
    15ac:	00000002 	andeq	r0, r0, r2
    15b0:	0000000b 	andeq	r0, r0, fp
    15b4:	454a0400 	strbmi	r0, [sl, #-1024]	; 0xfffffc00
    15b8:	80000002 	andhi	r0, r0, r2
    15bc:	00040b12 	andeq	r0, r4, r2, lsl fp
    15c0:	184c0400 	stmdane	ip, {sl}^
    15c4:	00000001 	andeq	r0, r0, r1
    15c8:	00e01201 	rsceq	r1, r0, r1, lsl #4
    15cc:	4f040000 	svcmi	0x00040000
    15d0:	00000118 	andeq	r0, r0, r8, lsl r1
    15d4:	08000104 	stmdaeq	r0, {r2, r8}
    15d8:	00000104 	andeq	r0, r0, r4, lsl #2
    15dc:	00000255 	andeq	r0, r0, r5, asr r2
    15e0:	0000c609 	andeq	ip, r0, r9, lsl #12
    15e4:	11001f00 	tstne	r0, r0, lsl #30
    15e8:	000002ea 	andeq	r0, r0, sl, ror #5
    15ec:	5b040190 	blpl	101c34 <__code_start-0x2fefe3cc>
    15f0:	00000293 	muleq	r0, r3, r2
    15f4:	0003850b 	andeq	r8, r3, fp, lsl #10
    15f8:	935c0400 	cmpls	ip, #0, 8
    15fc:	00000002 	andeq	r0, r0, r2
    1600:	00039d0b 	andeq	r9, r3, fp, lsl #26
    1604:	1d5d0400 	cfldrdne	mvd0, [sp, #-0]
    1608:	04000000 	streq	r0, [r0], #-0
    160c:	00012f0b 	andeq	r2, r1, fp, lsl #30
    1610:	995f0400 	ldmdbls	pc, {sl}^	; <UNPREDICTABLE>
    1614:	08000002 	stmdaeq	r0, {r1}
    1618:	0000bb0b 	andeq	fp, r0, fp, lsl #22
    161c:	05600400 	strbeq	r0, [r0, #-1024]!	; 0xfffffc00
    1620:	88000002 	stmdahi	r0, {r1}
    1624:	55040d00 	strpl	r0, [r4, #-3328]	; 0xfffff300
    1628:	08000002 	stmdaeq	r0, {r1}
    162c:	000002a9 	andeq	r0, r0, r9, lsr #5
    1630:	000002a9 	andeq	r0, r0, r9, lsr #5
    1634:	0000c609 	andeq	ip, r0, r9, lsl #12
    1638:	0d001f00 	stceq	15, cr1, [r0, #-0]
    163c:	0002af04 	andeq	sl, r2, r4, lsl #30
    1640:	500f1300 	andpl	r1, pc, r0, lsl #6
    1644:	08000003 	stmdaeq	r0, {r0, r1}
    1648:	02d57304 	sbcseq	r7, r5, #4, 6	; 0x10000000
    164c:	a60b0000 	strge	r0, [fp], -r0
    1650:	04000000 	streq	r0, [r0], #-0
    1654:	0002d574 	andeq	sp, r2, r4, ror r5
    1658:	0c0b0000 	stceq	0, cr0, [fp], {-0}
    165c:	04000000 	streq	r0, [r0], #-0
    1660:	00001d75 	andeq	r1, r0, r5, ror sp
    1664:	0d000400 	cfstrseq	mvf0, [r0, #-0]
    1668:	00004004 	andeq	r4, r0, r4
    166c:	036f0f00 	cmneq	pc, #0, 30
    1670:	04680000 	strbteq	r0, [r8], #-0
    1674:	000405b3 			; <UNDEFINED> instruction: 0x000405b3
    1678:	705f1000 	subsvc	r1, pc, r0
    167c:	d5b40400 	ldrle	r0, [r4, #1024]!	; 0x400
    1680:	00000002 	andeq	r0, r0, r2
    1684:	00725f10 	rsbseq	r5, r2, r0, lsl pc
    1688:	001db504 	andseq	fp, sp, r4, lsl #10
    168c:	10040000 	andne	r0, r4, r0
    1690:	0400775f 	streq	r7, [r0], #-1887	; 0xfffff8a1
    1694:	00001db6 			; <UNDEFINED> instruction: 0x00001db6
    1698:	d90b0800 	stmdble	fp, {fp}
    169c:	04000000 	streq	r0, [r0], #-0
    16a0:	000047b7 			; <UNDEFINED> instruction: 0x000047b7
    16a4:	8e0b0c00 	cdphi	12, 0, cr0, cr11, cr0, {0}
    16a8:	04000001 	streq	r0, [r0], #-1
    16ac:	000047b8 			; <UNDEFINED> instruction: 0x000047b8
    16b0:	5f100e00 	svcpl	0x00100e00
    16b4:	04006662 	streq	r6, [r0], #-1634	; 0xfffff99e
    16b8:	0002b0b9 	strheq	fp, [r2], -r9
    16bc:	630b1000 	movwvs	r1, #45056	; 0xb000
    16c0:	04000000 	streq	r0, [r0], #-0
    16c4:	00001dba 			; <UNDEFINED> instruction: 0x00001dba
    16c8:	c90b1800 	stmdbgt	fp, {fp, ip}
    16cc:	04000000 	streq	r0, [r0], #-0
    16d0:	000104c1 	andeq	r0, r1, r1, asr #9
    16d4:	620b1c00 	andvs	r1, fp, #0, 24
    16d8:	04000001 	streq	r0, [r0], #-1
    16dc:	000560c3 	andeq	r6, r5, r3, asr #1
    16e0:	7c0b2000 	stcvc	0, cr2, [fp], {-0}
    16e4:	04000002 	streq	r0, [r0], #-2
    16e8:	00058ac5 	andeq	r8, r5, r5, asr #21
    16ec:	e10b2400 	tst	fp, r0, lsl #8
    16f0:	04000003 	streq	r0, [r0], #-3
    16f4:	0005aec8 	andeq	sl, r5, r8, asr #29
    16f8:	ba0b2800 	blt	2cb700 <__code_start-0x2fd34900>
    16fc:	04000004 	streq	r0, [r0], #-4
    1700:	0005c8c9 	andeq	ip, r5, r9, asr #17
    1704:	5f102c00 	svcpl	0x00102c00
    1708:	04006275 	streq	r6, [r0], #-629	; 0xfffffd8b
    170c:	0002b0cc 	andeq	fp, r2, ip, asr #1
    1710:	5f103000 	svcpl	0x00103000
    1714:	04007075 	streq	r7, [r0], #-117	; 0xffffff8b
    1718:	0002d5cd 	andeq	sp, r2, sp, asr #11
    171c:	5f103800 	svcpl	0x00103800
    1720:	04007275 	streq	r7, [r0], #-629	; 0xfffffd8b
    1724:	00001dce 	andeq	r1, r0, lr, asr #27
    1728:	a00b3c00 	andge	r3, fp, r0, lsl #24
    172c:	04000000 	streq	r0, [r0], #-0
    1730:	0005ced1 	ldrdeq	ip, [r5], -r1
    1734:	920b4000 	andls	r4, fp, #0
    1738:	04000004 	streq	r0, [r0], #-4
    173c:	0005ded2 	ldrdeq	sp, [r5], -r2
    1740:	5f104300 	svcpl	0x00104300
    1744:	0400626c 	streq	r6, [r0], #-620	; 0xfffffd94
    1748:	0002b0d5 	ldrdeq	fp, [r2], -r5
    174c:	ef0b4400 	svc	0x000b4400
    1750:	04000000 	streq	r0, [r0], #-0
    1754:	00001dd8 	ldrdeq	r1, [r0], -r8
    1758:	000b4c00 	andeq	r4, fp, r0, lsl #24
    175c:	04000001 	streq	r0, [r0], #-1
    1760:	000075d9 	ldrdeq	r7, [r0], -r9
    1764:	480b5000 	stmdami	fp, {ip, lr}
    1768:	04000006 	streq	r0, [r0], #-6
    176c:	000423dc 	ldrdeq	r2, [r4], -ip
    1770:	430b5400 	movwmi	r5, #46080	; 0xb400
    1774:	04000002 	streq	r0, [r0], #-2
    1778:	0000f9e0 	andeq	pc, r0, r0, ror #19
    177c:	770b5800 	strvc	r5, [fp, -r0, lsl #16]
    1780:	04000003 	streq	r0, [r0], #-3
    1784:	0000eee2 	andeq	lr, r0, r2, ror #29
    1788:	490b5c00 	stmdbmi	fp, {sl, fp, ip, lr}
    178c:	04000002 	streq	r0, [r0], #-2
    1790:	00001de3 	andeq	r1, r0, r3, ror #27
    1794:	14006400 	strne	r6, [r0], #-1024	; 0xfffffc00
    1798:	0000001d 	andeq	r0, r0, sp, lsl r0
    179c:	00000423 	andeq	r0, r0, r3, lsr #8
    17a0:	00042315 	andeq	r2, r4, r5, lsl r3
    17a4:	01041500 	tsteq	r4, r0, lsl #10
    17a8:	06150000 	ldreq	r0, [r5], -r0
    17ac:	15000001 	strne	r0, [r0, #-1]
    17b0:	0000001d 	andeq	r0, r0, sp, lsl r0
    17b4:	2e040d00 	cdpcs	13, 0, cr0, cr4, cr0, {0}
    17b8:	0e000004 	cdpeq	0, 0, cr0, cr0, cr4, {0}
    17bc:	00000423 	andeq	r0, r0, r3, lsr #8
    17c0:	0003c416 	andeq	ip, r3, r6, lsl r4
    17c4:	04042800 	streq	r2, [r4], #-2048	; 0xfffff800
    17c8:	05600238 	strbeq	r0, [r0, #-568]!	; 0xfffffdc8
    17cc:	35170000 	ldrcc	r0, [r7, #-0]
    17d0:	04000003 	streq	r0, [r0], #-3
    17d4:	001d023a 	andseq	r0, sp, sl, lsr r2
    17d8:	17000000 	strne	r0, [r0, -r0]
    17dc:	000000e8 	andeq	r0, r0, r8, ror #1
    17e0:	35023f04 	strcc	r3, [r2, #-3844]	; 0xfffff0fc
    17e4:	04000006 	streq	r0, [r0], #-6
    17e8:	00017e17 	andeq	r7, r1, r7, lsl lr
    17ec:	023f0400 	eorseq	r0, pc, #0, 8
    17f0:	00000635 	andeq	r0, r0, r5, lsr r6
    17f4:	01431708 	cmpeq	r3, r8, lsl #14
    17f8:	3f040000 	svccc	0x00040000
    17fc:	00063502 	andeq	r3, r6, r2, lsl #10
    1800:	98170c00 	ldmdals	r7, {sl, fp}
    1804:	04000003 	streq	r0, [r0], #-3
    1808:	001d0241 	andseq	r0, sp, r1, asr #4
    180c:	17100000 	ldrne	r0, [r0, -r0]
    1810:	00000021 	andeq	r0, r0, r1, lsr #32
    1814:	17024204 	strne	r4, [r2, -r4, lsl #4]
    1818:	14000008 	strne	r0, [r0], #-8
    181c:	00044117 	andeq	r4, r4, r7, lsl r1
    1820:	02440400 	subeq	r0, r4, #0, 8
    1824:	0000001d 	andeq	r0, r0, sp, lsl r0
    1828:	03a21730 			; <UNDEFINED> instruction: 0x03a21730
    182c:	45040000 	strmi	r0, [r4, #-0]
    1830:	00058402 	andeq	r8, r5, r2, lsl #8
    1834:	f2173400 	vshl.s16	d3, d0, d7
    1838:	04000002 	streq	r0, [r0], #-2
    183c:	001d0247 	andseq	r0, sp, r7, asr #4
    1840:	17380000 	ldrne	r0, [r8, -r0]!
    1844:	000003b2 			; <UNDEFINED> instruction: 0x000003b2
    1848:	32024904 	andcc	r4, r2, #4, 18	; 0x10000
    184c:	3c000008 	stccc	0, cr0, [r0], {8}
    1850:	0001d717 	andeq	sp, r1, r7, lsl r7
    1854:	024c0400 	subeq	r0, ip, #0, 8
    1858:	00000176 	andeq	r0, r0, r6, ror r1
    185c:	01681740 	cmneq	r8, r0, asr #14
    1860:	4d040000 	stcmi	0, cr0, [r4, #-0]
    1864:	00001d02 	andeq	r1, r0, r2, lsl #26
    1868:	d4174400 	ldrle	r4, [r7], #-1024	; 0xfffffc00
    186c:	04000004 	streq	r0, [r0], #-4
    1870:	0176024e 	cmneq	r6, lr, asr #4
    1874:	17480000 	strbne	r0, [r8, -r0]
    1878:	00000304 	andeq	r0, r0, r4, lsl #6
    187c:	38024f04 	stmdacc	r2, {r2, r8, r9, sl, fp, lr}
    1880:	4c000008 	stcmi	0, cr0, [r0], {8}
    1884:	00018617 	andeq	r8, r1, r7, lsl r6
    1888:	02520400 	subseq	r0, r2, #0, 8
    188c:	0000001d 	andeq	r0, r0, sp, lsl r0
    1890:	00f81750 	rscseq	r1, r8, r0, asr r7
    1894:	53040000 	movwpl	r0, #16384	; 0x4000
    1898:	00010602 	andeq	r0, r1, r2, lsl #12
    189c:	2e175400 	cfmulscs	mvf5, mvf7, mvf0
    18a0:	04000003 	streq	r0, [r0], #-3
    18a4:	07f50276 			; <UNDEFINED> instruction: 0x07f50276
    18a8:	18580000 	ldmdane	r8, {}^	; <UNPREDICTABLE>
    18ac:	000002ea 	andeq	r0, r0, sl, ror #5
    18b0:	93027a04 	movwls	r7, #10756	; 0x2a04
    18b4:	48000002 	stmdami	r0, {r1}
    18b8:	01ae1801 			; <UNDEFINED> instruction: 0x01ae1801
    18bc:	7b040000 	blvc	1018c4 <__code_start-0x2fefe73c>
    18c0:	00025502 	andeq	r5, r2, r2, lsl #10
    18c4:	18014c00 	stmdane	r1, {sl, fp, lr}
    18c8:	00000488 	andeq	r0, r0, r8, lsl #9
    18cc:	49027f04 	stmdbmi	r2, {r2, r8, r9, sl, fp, ip, sp, lr}
    18d0:	dc000008 	stcle	0, cr0, [r0], {8}
    18d4:	00d11802 	sbcseq	r1, r1, r2, lsl #16
    18d8:	84040000 	strhi	r0, [r4], #-0
    18dc:	0005fa02 	andeq	pc, r5, r2, lsl #20
    18e0:	1802e000 	stmdane	r2, {sp, lr, pc}
    18e4:	000000b6 	strheq	r0, [r0], -r6
    18e8:	55028504 	strpl	r8, [r2, #-1284]	; 0xfffffafc
    18ec:	ec000008 	stc	0, cr0, [r0], {8}
    18f0:	040d0002 	streq	r0, [sp], #-2
    18f4:	00000405 	andeq	r0, r0, r5, lsl #8
    18f8:	00001d14 	andeq	r1, r0, r4, lsl sp
    18fc:	00058400 	andeq	r8, r5, r0, lsl #8
    1900:	04231500 	strteq	r1, [r3], #-1280	; 0xfffffb00
    1904:	04150000 	ldreq	r0, [r5], #-0
    1908:	15000001 	strne	r0, [r0, #-1]
    190c:	00000584 	andeq	r0, r0, r4, lsl #11
    1910:	00001d15 	andeq	r1, r0, r5, lsl sp
    1914:	040d0000 	streq	r0, [sp], #-0
    1918:	00000113 	andeq	r0, r0, r3, lsl r1
    191c:	0566040d 	strbeq	r0, [r6, #-1037]!	; 0xfffffbf3
    1920:	80140000 	andshi	r0, r4, r0
    1924:	ae000000 	cdpge	0, 0, cr0, cr0, cr0, {0}
    1928:	15000005 	strne	r0, [r0, #-5]
    192c:	00000423 	andeq	r0, r0, r3, lsr #8
    1930:	00010415 	andeq	r0, r1, r5, lsl r4
    1934:	00801500 	addeq	r1, r0, r0, lsl #10
    1938:	1d150000 	ldcne	0, cr0, [r5, #-0]
    193c:	00000000 	andeq	r0, r0, r0
    1940:	0590040d 	ldreq	r0, [r0, #1037]	; 0x40d
    1944:	1d140000 	ldcne	0, cr0, [r4, #-0]
    1948:	c8000000 	stmdagt	r0, {}	; <UNPREDICTABLE>
    194c:	15000005 	strne	r0, [r0, #-5]
    1950:	00000423 	andeq	r0, r0, r3, lsr #8
    1954:	00010415 	andeq	r0, r1, r5, lsl r4
    1958:	040d0000 	streq	r0, [sp], #-0
    195c:	000005b4 			; <UNDEFINED> instruction: 0x000005b4
    1960:	00004008 	andeq	r4, r0, r8
    1964:	0005de00 	andeq	sp, r5, r0, lsl #28
    1968:	00c60900 	sbceq	r0, r6, r0, lsl #18
    196c:	00020000 	andeq	r0, r2, r0
    1970:	00004008 	andeq	r4, r0, r8
    1974:	0005ee00 	andeq	lr, r5, r0, lsl #28
    1978:	00c60900 	sbceq	r0, r6, r0, lsl #18
    197c:	00000000 	andeq	r0, r0, r0
    1980:	00035d05 	andeq	r5, r3, r5, lsl #26
    1984:	011d0400 	tsteq	sp, r0, lsl #8
    1988:	000002db 	ldrdeq	r0, [r0], -fp
    198c:	00046f19 	andeq	r6, r4, r9, lsl pc
    1990:	21040c00 	tstcs	r4, r0, lsl #24
    1994:	00062f01 	andeq	r2, r6, r1, lsl #30
    1998:	03851700 	orreq	r1, r5, #0, 14
    199c:	23040000 	movwcs	r0, #16384	; 0x4000
    19a0:	00062f01 	andeq	r2, r6, r1, lsl #30
    19a4:	94170000 	ldrls	r0, [r7], #-0
    19a8:	04000001 	streq	r0, [r0], #-1
    19ac:	001d0124 	andseq	r0, sp, r4, lsr #2
    19b0:	17040000 	strne	r0, [r4, -r0]
    19b4:	00000357 	andeq	r0, r0, r7, asr r3
    19b8:	35012504 	strcc	r2, [r1, #-1284]	; 0xfffffafc
    19bc:	08000006 	stmdaeq	r0, {r1, r2}
    19c0:	fa040d00 	blx	104dc8 <__code_start-0x2fefb238>
    19c4:	0d000005 	stceq	0, cr0, [r0, #-20]	; 0xffffffec
    19c8:	0005ee04 	andeq	lr, r5, r4, lsl #28
    19cc:	00191900 	andseq	r1, r9, r0, lsl #18
    19d0:	040e0000 	streq	r0, [lr], #-0
    19d4:	0670013d 			; <UNDEFINED> instruction: 0x0670013d
    19d8:	cb170000 	blgt	5c19e0 <__code_start-0x2fa3e620>
    19dc:	04000003 	streq	r0, [r0], #-3
    19e0:	0670013e 			; <UNDEFINED> instruction: 0x0670013e
    19e4:	17000000 	strne	r0, [r0, -r0]
    19e8:	000003f8 	strdeq	r0, [r0], -r8
    19ec:	70013f04 	andvc	r3, r1, r4, lsl #30
    19f0:	06000006 	streq	r0, [r0], -r6
    19f4:	00041417 	andeq	r1, r4, r7, lsl r4
    19f8:	01400400 	cmpeq	r0, r0, lsl #8
    19fc:	0000004e 	andeq	r0, r0, lr, asr #32
    1a00:	4e08000c 	cdpmi	0, 0, cr0, cr8, cr12, {0}
    1a04:	80000000 	andhi	r0, r0, r0
    1a08:	09000006 	stmdbeq	r0, {r1, r2}
    1a0c:	000000c6 	andeq	r0, r0, r6, asr #1
    1a10:	d01a0002 	andsle	r0, sl, r2
    1a14:	81025704 	tsthi	r2, r4, lsl #14
    1a18:	17000007 	strne	r0, [r0, -r7]
    1a1c:	00000453 	andeq	r0, r0, r3, asr r4
    1a20:	24025904 	strcs	r5, [r2], #-2308	; 0xfffff6fc
    1a24:	00000000 	andeq	r0, r0, r0
    1a28:	0003fe17 	andeq	pc, r3, r7, lsl lr	; <UNPREDICTABLE>
    1a2c:	025a0400 	subseq	r0, sl, #0, 8
    1a30:	00000106 	andeq	r0, r0, r6, lsl #2
    1a34:	01c31704 	biceq	r1, r3, r4, lsl #14
    1a38:	5b040000 	blpl	101a40 <__code_start-0x2fefe5c0>
    1a3c:	00078102 	andeq	r8, r7, r2, lsl #2
    1a40:	ab170800 	blge	5c3a48 <__code_start-0x2fa3c5b8>
    1a44:	04000004 	streq	r0, [r0], #-4
    1a48:	018c025c 	orreq	r0, ip, ip, asr r2
    1a4c:	17240000 	strne	r0, [r4, -r0]!
    1a50:	00000153 	andeq	r0, r0, r3, asr r1
    1a54:	1d025d04 	stcne	13, cr5, [r2, #-16]
    1a58:	48000000 	stmdami	r0, {}	; <UNPREDICTABLE>
    1a5c:	00038017 	andeq	r8, r3, r7, lsl r0
    1a60:	025e0400 	subseq	r0, lr, #0, 8
    1a64:	00000063 	andeq	r0, r0, r3, rrx
    1a68:	04c11750 	strbeq	r1, [r1], #1872	; 0x750
    1a6c:	5f040000 	svcpl	0x00040000
    1a70:	00063b02 	andeq	r3, r6, r2, lsl #22
    1a74:	8b175800 	blhi	5d7a7c <__code_start-0x2fa28584>
    1a78:	04000003 	streq	r0, [r0], #-3
    1a7c:	00ee0260 	rsceq	r0, lr, r0, ror #4
    1a80:	17680000 	strbne	r0, [r8, -r0]!
    1a84:	000004c6 	andeq	r0, r0, r6, asr #9
    1a88:	ee026104 	adfs	f6, f2, f4
    1a8c:	70000000 	andvc	r0, r0, r0
    1a90:	00007b17 	andeq	r7, r0, r7, lsl fp
    1a94:	02620400 	rsbeq	r0, r2, #0, 8
    1a98:	000000ee 	andeq	r0, r0, lr, ror #1
    1a9c:	047e1778 	ldrbteq	r1, [lr], #-1912	; 0xfffff888
    1aa0:	63040000 	movwvs	r0, #16384	; 0x4000
    1aa4:	00079102 	andeq	r9, r7, r2, lsl #2
    1aa8:	b7178000 	ldrlt	r8, [r7, -r0]
    1aac:	04000001 	streq	r0, [r0], #-1
    1ab0:	07a10264 	streq	r0, [r1, r4, ror #4]!
    1ab4:	17880000 	strne	r0, [r8, r0]
    1ab8:	00000421 	andeq	r0, r0, r1, lsr #8
    1abc:	1d026504 	cfstr32ne	mvfx6, [r2, #-16]
    1ac0:	a0000000 	andge	r0, r0, r0
    1ac4:	00011917 	andeq	r1, r1, r7, lsl r9
    1ac8:	02660400 	rsbeq	r0, r6, #0, 8
    1acc:	000000ee 	andeq	r0, r0, lr, ror #1
    1ad0:	006c17a4 	rsbeq	r1, ip, r4, lsr #15
    1ad4:	67040000 	strvs	r0, [r4, -r0]
    1ad8:	0000ee02 	andeq	lr, r0, r2, lsl #28
    1adc:	0817ac00 	ldmdaeq	r7, {sl, fp, sp, pc}
    1ae0:	04000001 	streq	r0, [r0], #-1
    1ae4:	00ee0268 	rsceq	r0, lr, r8, ror #4
    1ae8:	17b40000 	ldrne	r0, [r4, r0]!
    1aec:	0000002c 	andeq	r0, r0, ip, lsr #32
    1af0:	ee026904 	vmla.f16	s12, s4, s8
    1af4:	bc000000 	stclt	0, cr0, [r0], {-0}
    1af8:	00003b17 	andeq	r3, r0, r7, lsl fp
    1afc:	026a0400 	rsbeq	r0, sl, #0, 8
    1b00:	000000ee 	andeq	r0, r0, lr, ror #1
    1b04:	033317c4 	teqeq	r3, #196, 14	; 0x3100000
    1b08:	6b040000 	blvs	101b10 <__code_start-0x2fefe4f0>
    1b0c:	00001d02 	andeq	r1, r0, r2, lsl #26
    1b10:	0800cc00 	stmdaeq	r0, {sl, fp, lr, pc}
    1b14:	0000010c 	andeq	r0, r0, ip, lsl #2
    1b18:	00000791 	muleq	r0, r1, r7
    1b1c:	0000c609 	andeq	ip, r0, r9, lsl #12
    1b20:	08001900 	stmdaeq	r0, {r8, fp, ip}
    1b24:	0000010c 	andeq	r0, r0, ip, lsl #2
    1b28:	000007a1 	andeq	r0, r0, r1, lsr #15
    1b2c:	0000c609 	andeq	ip, r0, r9, lsl #12
    1b30:	08000700 	stmdaeq	r0, {r8, r9, sl}
    1b34:	0000010c 	andeq	r0, r0, ip, lsl #2
    1b38:	000007b1 			; <UNDEFINED> instruction: 0x000007b1
    1b3c:	0000c609 	andeq	ip, r0, r9, lsl #12
    1b40:	1a001700 	bne	7748 <__code_start-0x2fff88b8>
    1b44:	027004f0 	rsbseq	r0, r0, #240, 8	; 0xf0000000
    1b48:	000007d5 	ldrdeq	r0, [r0], -r5
    1b4c:	0002a217 	andeq	sl, r2, r7, lsl r2
    1b50:	02730400 	rsbseq	r0, r3, #0, 8
    1b54:	000007d5 	ldrdeq	r0, [r0], -r5
    1b58:	04751700 	ldrbteq	r1, [r5], #-1792	; 0xfffff900
    1b5c:	74040000 	strvc	r0, [r4], #-0
    1b60:	0007e502 	andeq	lr, r7, r2, lsl #10
    1b64:	08007800 	stmdaeq	r0, {fp, ip, sp, lr}
    1b68:	000002d5 	ldrdeq	r0, [r0], -r5
    1b6c:	000007e5 	andeq	r0, r0, r5, ror #15
    1b70:	0000c609 	andeq	ip, r0, r9, lsl #12
    1b74:	08001d00 	stmdaeq	r0, {r8, sl, fp, ip}
    1b78:	00000024 	andeq	r0, r0, r4, lsr #32
    1b7c:	000007f5 	strdeq	r0, [r0], -r5
    1b80:	0000c609 	andeq	ip, r0, r9, lsl #12
    1b84:	1b001d00 	blne	8f8c <__code_start-0x2fff7074>
    1b88:	025504f0 	subseq	r0, r5, #240, 8	; 0xf0000000
    1b8c:	00000817 	andeq	r0, r0, r7, lsl r8
    1b90:	0003c41c 	andeq	ip, r3, ip, lsl r4
    1b94:	026c0400 	rsbeq	r0, ip, #0, 8
    1b98:	00000680 	andeq	r0, r0, r0, lsl #13
    1b9c:	0004981c 	andeq	r9, r4, ip, lsl r8
    1ba0:	02750400 	rsbseq	r0, r5, #0, 8
    1ba4:	000007b1 			; <UNDEFINED> instruction: 0x000007b1
    1ba8:	010c0800 	tsteq	ip, r0, lsl #16
    1bac:	08270000 	stmdaeq	r7!, {}	; <UNPREDICTABLE>
    1bb0:	c6090000 	strgt	r0, [r9], -r0
    1bb4:	18000000 	stmdane	r0, {}	; <UNPREDICTABLE>
    1bb8:	08321d00 	ldmdaeq	r2!, {r8, sl, fp, ip}
    1bbc:	23150000 	tstcs	r5, #0
    1bc0:	00000004 	andeq	r0, r0, r4
    1bc4:	0827040d 	stmdaeq	r7!, {r0, r2, r3, sl}
    1bc8:	040d0000 	streq	r0, [sp], #-0
    1bcc:	00000176 	andeq	r0, r0, r6, ror r1
    1bd0:	0008491d 	andeq	r4, r8, sp, lsl r9
    1bd4:	001d1500 	andseq	r1, sp, r0, lsl #10
    1bd8:	0d000000 	stceq	0, cr0, [r0, #-0]
    1bdc:	00084f04 	andeq	r4, r8, r4, lsl #30
    1be0:	3e040d00 	cdpcc	13, 0, cr0, cr4, cr0, {0}
    1be4:	08000008 	stmdaeq	r0, {r3}
    1be8:	000005ee 	andeq	r0, r0, lr, ror #11
    1bec:	00000865 	andeq	r0, r0, r5, ror #16
    1bf0:	0000c609 	andeq	ip, r0, r9, lsl #12
    1bf4:	1e000200 	cdpne	2, 0, cr0, cr0, cr0, {0}
    1bf8:	00000435 	andeq	r0, r0, r5, lsr r4
    1bfc:	2302fd04 	movwcs	pc, #11524	; 0x2d04	; <UNPREDICTABLE>
    1c00:	1e000004 	cdpne	0, 0, cr0, cr0, cr4, {0}
    1c04:	0000042e 	andeq	r0, r0, lr, lsr #8
    1c08:	2902fe04 	stmdbcs	r2, {r2, r9, sl, fp, ip, sp, lr, pc}
    1c0c:	1f000004 	svcne	0x00000004
    1c10:	00000642 	andeq	r0, r0, r2, asr #12
    1c14:	042e1705 	strteq	r1, [lr], #-1797	; 0xfffff8fb
    1c18:	03050000 	movweq	r0, #20480	; 0x5000
    1c1c:	30001a48 	andcc	r1, r0, r8, asr #20
    1c20:	00086520 	andeq	r6, r8, r0, lsr #10
    1c24:	40030500 	andmi	r0, r3, r0, lsl #10
    1c28:	2030001a 	eorscs	r0, r0, sl, lsl r0
    1c2c:	00000871 	andeq	r0, r0, r1, ror r8
    1c30:	17000305 	strne	r0, [r0, -r5, lsl #6]
    1c34:	aa003000 	bge	dc3c <__code_start-0x2fff23c4>
    1c38:	02000000 	andeq	r0, r0, #0
    1c3c:	0005a500 	andeq	sl, r5, r0, lsl #10
    1c40:	9a010400 	bls	42c48 <__code_start-0x2ffbd3b8>
    1c44:	e4000004 	str	r0, [r0], #-4
    1c48:	f8300014 			; <UNDEFINED> instruction: 0xf8300014
    1c4c:	2e300015 	mrccs	0, 1, r0, cr0, cr5, {0}
    1c50:	2e2e2f2e 	cdpcs	15, 2, cr2, cr14, cr14, {1}
    1c54:	2f2e2e2f 	svccs	0x002e2e2f
    1c58:	2f637273 	svccs	0x00637273
    1c5c:	6762696c 	strbvs	r6, [r2, -ip, ror #18]!
    1c60:	632f6363 			; <UNDEFINED> instruction: 0x632f6363
    1c64:	69666e6f 	stmdbvs	r6!, {r0, r1, r2, r3, r5, r6, r9, sl, fp, sp, lr}^
    1c68:	72612f67 	rsbvc	r2, r1, #412	; 0x19c
    1c6c:	696c2f6d 	stmdbvs	ip!, {r0, r2, r3, r5, r6, r8, r9, sl, fp, sp}^
    1c70:	75663162 	strbvc	r3, [r6, #-354]!	; 0xfffffe9e
    1c74:	2e73636e 	cdpcs	3, 7, cr6, cr3, cr14, {3}
    1c78:	622f0053 	eorvs	r0, pc, #83	; 0x53
    1c7c:	646c6975 	strbtvs	r6, [ip], #-2421	; 0xfffff68b
    1c80:	6363672f 	cmnvs	r3, #12320768	; 0xbc0000
    1c84:	6d72612d 	ldfvse	f6, [r2, #-180]!	; 0xffffff4c
    1c88:	6e6f6e2d 	cdpvs	14, 6, cr6, cr15, cr13, {1}
    1c8c:	61652d65 	cmnvs	r5, r5, ror #26
    1c90:	692d6962 	pushvs	{r1, r5, r6, r8, fp, sp, lr}
    1c94:	4d69706f 	stclmi	0, cr7, [r9, #-444]!	; 0xfffffe44
    1c98:	63672f77 	cmnvs	r7, #476	; 0x1dc
    1c9c:	72612d63 	rsbvc	r2, r1, #6336	; 0x18c0
    1ca0:	6f6e2d6d 	svcvs	0x006e2d6d
    1ca4:	652d656e 	strvs	r6, [sp, #-1390]!	; 0xfffffa92
    1ca8:	2d696261 	sfmcs	f6, 2, [r9, #-388]!	; 0xfffffe7c
    1cac:	2e332e36 	mrccs	14, 1, r2, cr3, cr6, {1}
    1cb0:	76732b31 			; <UNDEFINED> instruction: 0x76732b31
    1cb4:	3335326e 	teqcc	r5, #-536870906	; 0xe0000006
    1cb8:	2f393330 	svccs	0x00393330
    1cbc:	6c697562 	cfstr64vs	mvdx7, [r9], #-392	; 0xfffffe78
    1cc0:	72612f64 	rsbvc	r2, r1, #100, 30	; 0x190
    1cc4:	6f6e2d6d 	svcvs	0x006e2d6d
    1cc8:	652d656e 	strvs	r6, [sp, #-1390]!	; 0xfffffa92
    1ccc:	2f696261 	svccs	0x00696261
    1cd0:	6762696c 	strbvs	r6, [r2, -ip, ror #18]!
    1cd4:	47006363 	strmi	r6, [r0, -r3, ror #6]
    1cd8:	4120554e 			; <UNDEFINED> instruction: 0x4120554e
    1cdc:	2e322053 	mrccs	0, 1, r2, cr2, cr3, {2}
    1ce0:	01003732 	tsteq	r0, r2, lsr r7
    1ce4:	0000aa80 	andeq	sl, r0, r0, lsl #21
    1ce8:	b9000200 	stmdblt	r0, {r9}
    1cec:	04000005 	streq	r0, [r0], #-5
    1cf0:	00051201 	andeq	r1, r5, r1, lsl #4
    1cf4:	0015f800 	andseq	pc, r5, r0, lsl #16
    1cf8:	0015fc30 	andseq	pc, r5, r0, lsr ip	; <UNPREDICTABLE>
    1cfc:	2f2e2e30 	svccs	0x002e2e30
    1d00:	2e2f2e2e 	cdpcs	14, 2, cr2, cr15, cr14, {1}
    1d04:	72732f2e 	rsbsvc	r2, r3, #46, 30	; 0xb8
    1d08:	696c2f63 	stmdbvs	ip!, {r0, r1, r5, r6, r8, r9, sl, fp, sp}^
    1d0c:	63636762 	cmnvs	r3, #25690112	; 0x1880000
    1d10:	6e6f632f 	cdpvs	3, 6, cr6, cr15, cr15, {1}
    1d14:	2f676966 	svccs	0x00676966
    1d18:	2f6d7261 	svccs	0x006d7261
    1d1c:	3162696c 	cmncc	r2, ip, ror #18
    1d20:	636e7566 	cmnvs	lr, #427819008	; 0x19800000
    1d24:	00532e73 	subseq	r2, r3, r3, ror lr
    1d28:	6975622f 	ldmdbvs	r5!, {r0, r1, r2, r3, r5, r9, sp, lr}^
    1d2c:	672f646c 	strvs	r6, [pc, -ip, ror #8]!
    1d30:	612d6363 			; <UNDEFINED> instruction: 0x612d6363
    1d34:	6e2d6d72 	mcrvs	13, 1, r6, cr13, cr2, {3}
    1d38:	2d656e6f 	stclcs	14, cr6, [r5, #-444]!	; 0xfffffe44
    1d3c:	69626165 	stmdbvs	r2!, {r0, r2, r5, r6, r8, sp, lr}^
    1d40:	706f692d 	rsbvc	r6, pc, sp, lsr #18
    1d44:	2f774d69 	svccs	0x00774d69
    1d48:	2d636367 	stclcs	3, cr6, [r3, #-412]!	; 0xfffffe64
    1d4c:	2d6d7261 	sfmcs	f7, 2, [sp, #-388]!	; 0xfffffe7c
    1d50:	656e6f6e 	strbvs	r6, [lr, #-3950]!	; 0xfffff092
    1d54:	6261652d 	rsbvs	r6, r1, #188743680	; 0xb400000
    1d58:	2e362d69 	cdpcs	13, 3, cr2, cr6, cr9, {3}
    1d5c:	2b312e33 	blcs	c4d630 <__code_start-0x2f3b29d0>
    1d60:	326e7673 	rsbcc	r7, lr, #120586240	; 0x7300000
    1d64:	33303335 	teqcc	r0, #-738197504	; 0xd4000000
    1d68:	75622f39 	strbvc	r2, [r2, #-3897]!	; 0xfffff0c7
    1d6c:	2f646c69 	svccs	0x00646c69
    1d70:	2d6d7261 	sfmcs	f7, 2, [sp, #-388]!	; 0xfffffe7c
    1d74:	656e6f6e 	strbvs	r6, [lr, #-3950]!	; 0xfffff092
    1d78:	6261652d 	rsbvs	r6, r1, #188743680	; 0xb400000
    1d7c:	696c2f69 	stmdbvs	ip!, {r0, r3, r5, r6, r8, r9, sl, fp, sp}^
    1d80:	63636762 	cmnvs	r3, #25690112	; 0x1880000
    1d84:	554e4700 	strbpl	r4, [lr, #-1792]	; 0xfffff900
    1d88:	20534120 	subscs	r4, r3, r0, lsr #2
    1d8c:	37322e32 			; <UNDEFINED> instruction: 0x37322e32
    1d90:	Address 0x0000000000001d90 is out of bounds.


Disassembly of section .debug_abbrev:

00000000 <.debug_abbrev>:
   0:	25011101 	strcs	r1, [r1, #-257]	; 0xfffffeff
   4:	030b130e 	movweq	r1, #45838	; 0xb30e
   8:	550e1b0e 	strpl	r1, [lr, #-2830]	; 0xfffff4f2
   c:	10011117 	andne	r1, r1, r7, lsl r1
  10:	02000017 	andeq	r0, r0, #23
  14:	0b0b0024 	bleq	2c00ac <__code_start-0x2fd3ff54>
  18:	08030b3e 	stmdaeq	r3, {r1, r2, r3, r4, r5, r8, r9, fp}
  1c:	16030000 	strne	r0, [r3], -r0
  20:	3a0e0300 	bcc	380c28 <__code_start-0x2fc7f3d8>
  24:	490b3b0b 	stmdbmi	fp, {r0, r1, r3, r8, r9, fp, ip, sp}
  28:	04000013 	streq	r0, [r0], #-19	; 0xffffffed
  2c:	0b0b0024 	bleq	2c00c4 <__code_start-0x2fd3ff3c>
  30:	0e030b3e 	vmoveq.16	d3[0], r0
  34:	16050000 	strne	r0, [r5], -r0
  38:	3a0e0300 	bcc	380c40 <__code_start-0x2fc7f3c0>
  3c:	49053b0b 	stmdbmi	r5, {r0, r1, r3, r8, r9, fp, ip, sp}
  40:	06000013 			; <UNDEFINED> instruction: 0x06000013
  44:	0b0b0117 	bleq	2c04a8 <__code_start-0x2fd3fb58>
  48:	0b3b0b3a 	bleq	ec2d38 <__code_start-0x2f13d2c8>
  4c:	00001301 	andeq	r1, r0, r1, lsl #6
  50:	03000d07 	movweq	r0, #3335	; 0xd07
  54:	3b0b3a0e 	blcc	2ce894 <__code_start-0x2fd3176c>
  58:	0013490b 	andseq	r4, r3, fp, lsl #18
  5c:	01010800 	tsteq	r1, r0, lsl #16
  60:	13011349 	movwne	r1, #4937	; 0x1349
  64:	21090000 	mrscs	r0, (UNDEF: 9)
  68:	2f134900 	svccs	0x00134900
  6c:	0a00000b 	beq	a0 <__code_start-0x2fffff60>
  70:	0b0b0113 	bleq	2c04c4 <__code_start-0x2fd3fb3c>
  74:	0b3b0b3a 	bleq	ec2d64 <__code_start-0x2f13d29c>
  78:	00001301 	andeq	r1, r0, r1, lsl #6
  7c:	03000d0b 	movweq	r0, #3339	; 0xd0b
  80:	3b0b3a0e 	blcc	2ce8c0 <__code_start-0x2fd31740>
  84:	3813490b 	ldmdacc	r3, {r0, r1, r3, r8, fp, lr}
  88:	0c00000b 	stceq	0, cr0, [r0], {11}
  8c:	0b0b000f 	bleq	2c00d0 <__code_start-0x2fd3ff30>
  90:	0f0d0000 	svceq	0x000d0000
  94:	490b0b00 	stmdbmi	fp, {r8, r9, fp}
  98:	0e000013 	mcreq	0, 0, r0, cr0, cr3, {0}
  9c:	13490026 	movtne	r0, #36902	; 0x9026
  a0:	130f0000 	movwne	r0, #61440	; 0xf000
  a4:	0b0e0301 	bleq	380cb0 <__code_start-0x2fc7f350>
  a8:	3b0b3a0b 	blcc	2ce8dc <__code_start-0x2fd31724>
  ac:	0013010b 	andseq	r0, r3, fp, lsl #2
  b0:	000d1000 	andeq	r1, sp, r0
  b4:	0b3a0803 	bleq	e820c8 <__code_start-0x2f17df38>
  b8:	13490b3b 	movtne	r0, #39739	; 0x9b3b
  bc:	00000b38 	andeq	r0, r0, r8, lsr fp
  c0:	03011311 	movweq	r1, #4881	; 0x1311
  c4:	3a050b0e 	bcc	142d04 <__code_start-0x2febd2fc>
  c8:	010b3b0b 	tsteq	fp, fp, lsl #22
  cc:	12000013 	andne	r0, r0, #19
  d0:	0e03000d 	cdpeq	0, 0, cr0, cr3, cr13, {0}
  d4:	0b3b0b3a 	bleq	ec2dc4 <__code_start-0x2f13d23c>
  d8:	05381349 	ldreq	r1, [r8, #-841]!	; 0xfffffcb7
  dc:	15130000 	ldrne	r0, [r3, #-0]
  e0:	00192700 	andseq	r2, r9, r0, lsl #14
  e4:	01151400 	tsteq	r5, r0, lsl #8
  e8:	13491927 	movtne	r1, #39207	; 0x9927
  ec:	00001301 	andeq	r1, r0, r1, lsl #6
  f0:	49000515 	stmdbmi	r0, {r0, r2, r4, r8, sl}
  f4:	16000013 			; <UNDEFINED> instruction: 0x16000013
  f8:	0e030113 	mcreq	1, 0, r0, cr3, cr3, {0}
  fc:	0b3a050b 	bleq	e81530 <__code_start-0x2f17ead0>
 100:	1301053b 	movwne	r0, #5435	; 0x153b
 104:	0d170000 	ldceq	0, cr0, [r7, #-0]
 108:	3a0e0300 	bcc	380d10 <__code_start-0x2fc7f2f0>
 10c:	49053b0b 	stmdbmi	r5, {r0, r1, r3, r8, r9, fp, ip, sp}
 110:	000b3813 	andeq	r3, fp, r3, lsl r8
 114:	000d1800 	andeq	r1, sp, r0, lsl #16
 118:	0b3a0e03 	bleq	e8392c <__code_start-0x2f17c6d4>
 11c:	1349053b 	movtne	r0, #38203	; 0x953b
 120:	00000538 	andeq	r0, r0, r8, lsr r5
 124:	03011319 	movweq	r1, #4889	; 0x1319
 128:	3a0b0b0e 	bcc	2c2d68 <__code_start-0x2fd3d298>
 12c:	01053b0b 	tsteq	r5, fp, lsl #22
 130:	1a000013 	bne	184 <__code_start-0x2ffffe7c>
 134:	0b0b0113 	bleq	2c0588 <__code_start-0x2fd3fa78>
 138:	053b0b3a 	ldreq	r0, [fp, #-2874]!	; 0xfffff4c6
 13c:	00001301 	andeq	r1, r0, r1, lsl #6
 140:	0b01171b 	bleq	45db4 <__code_start-0x2ffba24c>
 144:	3b0b3a0b 	blcc	2ce978 <__code_start-0x2fd31688>
 148:	00130105 	andseq	r0, r3, r5, lsl #2
 14c:	000d1c00 	andeq	r1, sp, r0, lsl #24
 150:	0b3a0e03 	bleq	e83964 <__code_start-0x2f17c69c>
 154:	1349053b 	movtne	r0, #38203	; 0x953b
 158:	151d0000 	ldrne	r0, [sp, #-0]
 15c:	01192701 	tsteq	r9, r1, lsl #14
 160:	1e000013 	mcrne	0, 0, r0, cr0, cr3, {0}
 164:	0e030034 	mcreq	0, 0, r0, cr3, cr4, {1}
 168:	053b0b3a 	ldreq	r0, [fp, #-2874]!	; 0xfffff4c6
 16c:	193f1349 	ldmdbne	pc!, {r0, r3, r6, r8, r9, ip}	; <UNPREDICTABLE>
 170:	0000193c 	andeq	r1, r0, ip, lsr r9
 174:	3f012e1f 	svccc	0x00012e1f
 178:	3a0e0319 	bcc	380de4 <__code_start-0x2fc7f21c>
 17c:	270b3b0b 	strcs	r3, [fp, -fp, lsl #22]
 180:	11134919 	tstne	r3, r9, lsl r9
 184:	40061201 	andmi	r1, r6, r1, lsl #4
 188:	19429718 	stmdbne	r2, {r3, r4, r8, r9, sl, ip, pc}^
 18c:	05200000 	streq	r0, [r0, #-0]!
 190:	3a080300 	bcc	200d98 <__code_start-0x2fdff268>
 194:	490b3b0b 	stmdbmi	fp, {r0, r1, r3, r8, r9, fp, ip, sp}
 198:	00170213 	andseq	r0, r7, r3, lsl r2
 19c:	11010000 	mrsne	r0, (UNDEF: 1)
 1a0:	130e2501 	movwne	r2, #58625	; 0xe501
 1a4:	1b0e030b 	blne	380dd8 <__code_start-0x2fc7f228>
 1a8:	1201110e 	andne	r1, r1, #-2147483645	; 0x80000003
 1ac:	00171006 	andseq	r1, r7, r6
 1b0:	00240200 	eoreq	r0, r4, r0, lsl #4
 1b4:	0b3e0b0b 	bleq	f82de8 <__code_start-0x2f07d218>
 1b8:	00000e03 	andeq	r0, r0, r3, lsl #28
 1bc:	49002603 	stmdbmi	r0, {r0, r1, r9, sl, sp}
 1c0:	04000013 	streq	r0, [r0], #-19	; 0xffffffed
 1c4:	0b0b0024 	bleq	2c025c <__code_start-0x2fd3fda4>
 1c8:	08030b3e 	stmdaeq	r3, {r1, r2, r3, r4, r5, r8, r9, fp}
 1cc:	34050000 	strcc	r0, [r5], #-0
 1d0:	3a0e0300 	bcc	380dd8 <__code_start-0x2fc7f228>
 1d4:	490b3b0b 	stmdbmi	fp, {r0, r1, r3, r8, r9, fp, ip, sp}
 1d8:	3c193f13 	ldccc	15, cr3, [r9], {19}
 1dc:	06000019 			; <UNDEFINED> instruction: 0x06000019
 1e0:	0b0b000f 	bleq	2c0224 <__code_start-0x2fd3fddc>
 1e4:	00001349 	andeq	r1, r0, r9, asr #6
 1e8:	49003707 	stmdbmi	r0, {r0, r1, r2, r8, r9, sl, ip, sp}
 1ec:	08000013 	stmdaeq	r0, {r0, r1, r4}
 1f0:	13490101 	movtne	r0, #37121	; 0x9101
 1f4:	00001301 	andeq	r1, r0, r1, lsl #6
 1f8:	00002109 	andeq	r2, r0, r9, lsl #2
 1fc:	00160a00 	andseq	r0, r6, r0, lsl #20
 200:	0b3a0e03 	bleq	e83a14 <__code_start-0x2f17c5ec>
 204:	13490b3b 	movtne	r0, #39739	; 0x9b3b
 208:	160b0000 	strne	r0, [fp], -r0
 20c:	3a0e0300 	bcc	380e14 <__code_start-0x2fc7f1ec>
 210:	49053b0b 	stmdbmi	r5, {r0, r1, r3, r8, r9, fp, ip, sp}
 214:	0c000013 	stceq	0, cr0, [r0], {19}
 218:	0b0b0117 	bleq	2c067c <__code_start-0x2fd3f984>
 21c:	0b3b0b3a 	bleq	ec2f0c <__code_start-0x2f13d0f4>
 220:	00001301 	andeq	r1, r0, r1, lsl #6
 224:	03000d0d 	movweq	r0, #3341	; 0xd0d
 228:	3b0b3a0e 	blcc	2cea68 <__code_start-0x2fd31598>
 22c:	0013490b 	andseq	r4, r3, fp, lsl #18
 230:	00210e00 	eoreq	r0, r1, r0, lsl #28
 234:	0b2f1349 	bleq	bc4f60 <__code_start-0x2f43b0a0>
 238:	130f0000 	movwne	r0, #61440	; 0xf000
 23c:	3a0b0b01 	bcc	2c2e48 <__code_start-0x2fd3d1b8>
 240:	010b3b0b 	tsteq	fp, fp, lsl #22
 244:	10000013 	andne	r0, r0, r3, lsl r0
 248:	0e03000d 	cdpeq	0, 0, cr0, cr3, cr13, {0}
 24c:	0b3b0b3a 	bleq	ec2f3c <__code_start-0x2f13d0c4>
 250:	0b381349 	bleq	e04f7c <__code_start-0x2f1fb084>
 254:	0f110000 	svceq	0x00110000
 258:	000b0b00 	andeq	r0, fp, r0, lsl #22
 25c:	01131200 	tsteq	r3, r0, lsl #4
 260:	0b0b0e03 	bleq	2c3a74 <__code_start-0x2fd3c58c>
 264:	0b3b0b3a 	bleq	ec2f54 <__code_start-0x2f13d0ac>
 268:	00001301 	andeq	r1, r0, r1, lsl #6
 26c:	03000d13 	movweq	r0, #3347	; 0xd13
 270:	3b0b3a08 	blcc	2cea98 <__code_start-0x2fd31568>
 274:	3813490b 	ldmdacc	r3, {r0, r1, r3, r8, fp, lr}
 278:	1400000b 	strne	r0, [r0], #-11
 27c:	0e030113 	mcreq	1, 0, r0, cr3, cr3, {0}
 280:	0b3a050b 	bleq	e816b4 <__code_start-0x2f17e94c>
 284:	13010b3b 	movwne	r0, #6971	; 0x1b3b
 288:	0d150000 	ldceq	0, cr0, [r5, #-0]
 28c:	3a0e0300 	bcc	380e94 <__code_start-0x2fc7f16c>
 290:	490b3b0b 	stmdbmi	fp, {r0, r1, r3, r8, r9, fp, ip, sp}
 294:	00053813 	andeq	r3, r5, r3, lsl r8
 298:	00151600 	andseq	r1, r5, r0, lsl #12
 29c:	00001927 	andeq	r1, r0, r7, lsr #18
 2a0:	27011517 	smladcs	r1, r7, r5, r1
 2a4:	01134919 	tsteq	r3, r9, lsl r9
 2a8:	18000013 	stmdane	r0, {r0, r1, r4}
 2ac:	13490005 	movtne	r0, #36869	; 0x9005
 2b0:	13190000 	tstne	r9, #0
 2b4:	0b0e0301 	bleq	380ec0 <__code_start-0x2fc7f140>
 2b8:	3b0b3a05 	blcc	2cead4 <__code_start-0x2fd3152c>
 2bc:	00130105 	andseq	r0, r3, r5, lsl #2
 2c0:	000d1a00 	andeq	r1, sp, r0, lsl #20
 2c4:	0b3a0e03 	bleq	e83ad8 <__code_start-0x2f17c528>
 2c8:	1349053b 	movtne	r0, #38203	; 0x953b
 2cc:	00000b38 	andeq	r0, r0, r8, lsr fp
 2d0:	03000d1b 	movweq	r0, #3355	; 0xd1b
 2d4:	3b0b3a0e 	blcc	2ceb14 <__code_start-0x2fd314ec>
 2d8:	38134905 	ldmdacc	r3, {r0, r2, r8, fp, lr}
 2dc:	1c000005 	stcne	0, cr0, [r0], {5}
 2e0:	0e030113 	mcreq	1, 0, r0, cr3, cr3, {0}
 2e4:	0b3a0b0b 	bleq	e82f18 <__code_start-0x2f17d0e8>
 2e8:	1301053b 	movwne	r0, #5435	; 0x153b
 2ec:	131d0000 	tstne	sp, #0
 2f0:	3a0b0b01 	bcc	2c2efc <__code_start-0x2fd3d104>
 2f4:	01053b0b 	tsteq	r5, fp, lsl #22
 2f8:	1e000013 	mcrne	0, 0, r0, cr0, cr3, {0}
 2fc:	0b0b0117 	bleq	2c0760 <__code_start-0x2fd3f8a0>
 300:	053b0b3a 	ldreq	r0, [fp, #-2874]!	; 0xfffff4c6
 304:	00001301 	andeq	r1, r0, r1, lsl #6
 308:	03000d1f 	movweq	r0, #3359	; 0xd1f
 30c:	3b0b3a0e 	blcc	2ceb4c <__code_start-0x2fd314b4>
 310:	00134905 	andseq	r4, r3, r5, lsl #18
 314:	01152000 	tsteq	r5, r0
 318:	13011927 	movwne	r1, #6439	; 0x1927
 31c:	34210000 	strtcc	r0, [r1], #-0
 320:	3a0e0300 	bcc	380f28 <__code_start-0x2fc7f0d8>
 324:	49053b0b 	stmdbmi	r5, {r0, r1, r3, r8, r9, fp, ip, sp}
 328:	3c193f13 	ldccc	15, cr3, [r9], {19}
 32c:	22000019 	andcs	r0, r0, #25
 330:	193f012e 	ldmdbne	pc!, {r1, r2, r3, r5, r8}	; <UNPREDICTABLE>
 334:	0b3a0e03 	bleq	e83b48 <__code_start-0x2f17c4b8>
 338:	19270b3b 	stmdbne	r7!, {r0, r1, r3, r4, r5, r8, r9, fp}
 33c:	01111349 	tsteq	r1, r9, asr #6
 340:	18400612 	stmdane	r0, {r1, r4, r9, sl}^
 344:	01194297 			; <UNDEFINED> instruction: 0x01194297
 348:	23000013 	movwcs	r0, #19
 34c:	08030005 	stmdaeq	r3, {r0, r2}
 350:	0b3b0b3a 	bleq	ec3040 <__code_start-0x2f13cfc0>
 354:	17021349 	strne	r1, [r2, -r9, asr #6]
 358:	05240000 	streq	r0, [r4, #-0]!
 35c:	3a0e0300 	bcc	380f64 <__code_start-0x2fc7f09c>
 360:	490b3b0b 	stmdbmi	fp, {r0, r1, r3, r8, r9, fp, ip, sp}
 364:	00170213 	andseq	r0, r7, r3, lsl r2
 368:	82892500 	addhi	r2, r9, #0, 10
 36c:	01110101 	tsteq	r1, r1, lsl #2
 370:	31194295 			; <UNDEFINED> instruction: 0x31194295
 374:	26000013 			; <UNDEFINED> instruction: 0x26000013
 378:	0001828a 	andeq	r8, r1, sl, lsl #5
 37c:	42911802 	addsmi	r1, r1, #131072	; 0x20000
 380:	27000018 	smladcs	r0, r8, r0, r0
 384:	193f012e 	ldmdbne	pc!, {r1, r2, r3, r5, r8}	; <UNPREDICTABLE>
 388:	0b3a0e03 	bleq	e83b9c <__code_start-0x2f17c464>
 38c:	19270b3b 	stmdbne	r7!, {r0, r1, r3, r4, r5, r8, r9, fp}
 390:	01111349 	tsteq	r1, r9, asr #6
 394:	18400612 	stmdane	r0, {r1, r4, r9, sl}^
 398:	01194296 			; <UNDEFINED> instruction: 0x01194296
 39c:	28000013 	stmdacs	r0, {r0, r1, r4}
 3a0:	08030034 	stmdaeq	r3, {r2, r4, r5}
 3a4:	0b3b0b3a 	bleq	ec3094 <__code_start-0x2f13cf6c>
 3a8:	17021349 	strne	r1, [r2, -r9, asr #6]
 3ac:	34290000 	strtcc	r0, [r9], #-0
 3b0:	3a0e0300 	bcc	380fb8 <__code_start-0x2fc7f048>
 3b4:	490b3b0b 	stmdbmi	fp, {r0, r1, r3, r8, r9, fp, ip, sp}
 3b8:	00170213 	andseq	r0, r7, r3, lsl r2
 3bc:	11010000 	mrsne	r0, (UNDEF: 1)
 3c0:	130e2501 	movwne	r2, #58625	; 0xe501
 3c4:	1b0e030b 	blne	380ff8 <__code_start-0x2fc7f008>
 3c8:	0017100e 	andseq	r1, r7, lr
 3cc:	00240200 	eoreq	r0, r4, r0, lsl #4
 3d0:	0b3e0b0b 	bleq	f83004 <__code_start-0x2f07cffc>
 3d4:	00000e03 	andeq	r0, r0, r3, lsl #28
 3d8:	0b002403 	bleq	93ec <__code_start-0x2fff6c14>
 3dc:	030b3e0b 	movweq	r3, #48651	; 0xbe0b
 3e0:	04000008 	streq	r0, [r0], #-8
 3e4:	0e030034 	mcreq	0, 0, r0, cr3, cr4, {1}
 3e8:	0b3b0b3a 	bleq	ec30d8 <__code_start-0x2f13cf28>
 3ec:	193f1349 	ldmdbne	pc!, {r0, r3, r6, r8, r9, ip}	; <UNPREDICTABLE>
 3f0:	0000193c 	andeq	r1, r0, ip, lsr r9
 3f4:	0b000f05 	bleq	4010 <__code_start-0x2fffbff0>
 3f8:	0013490b 	andseq	r4, r3, fp, lsl #18
 3fc:	00260600 	eoreq	r0, r6, r0, lsl #12
 400:	00001349 	andeq	r1, r0, r9, asr #6
 404:	49010107 	stmdbmi	r1, {r0, r1, r2, r8}
 408:	00130113 	andseq	r0, r3, r3, lsl r1
 40c:	00210800 	eoreq	r0, r1, r0, lsl #16
 410:	34090000 	strcc	r0, [r9], #-0
 414:	02134700 	andseq	r4, r3, #0, 14
 418:	00000018 	andeq	r0, r0, r8, lsl r0
 41c:	25011101 	strcs	r1, [r1, #-257]	; 0xfffffeff
 420:	030b130e 	movweq	r1, #45838	; 0xb30e
 424:	100e1b0e 	andne	r1, lr, lr, lsl #22
 428:	02000017 	andeq	r0, r0, #23
 42c:	0b0b0024 	bleq	2c04c4 <__code_start-0x2fd3fb3c>
 430:	08030b3e 	stmdaeq	r3, {r1, r2, r3, r4, r5, r8, r9, fp}
 434:	24030000 	strcs	r0, [r3], #-0
 438:	3e0b0b00 	vmlacc.f64	d0, d11, d0
 43c:	000e030b 	andeq	r0, lr, fp, lsl #6
 440:	00160400 	andseq	r0, r6, r0, lsl #8
 444:	0b3a0e03 	bleq	e83c58 <__code_start-0x2f17c3a8>
 448:	13490b3b 	movtne	r0, #39739	; 0x9b3b
 44c:	16050000 	strne	r0, [r5], -r0
 450:	3a0e0300 	bcc	381058 <__code_start-0x2fc7efa8>
 454:	49053b0b 	stmdbmi	r5, {r0, r1, r3, r8, r9, fp, ip, sp}
 458:	06000013 			; <UNDEFINED> instruction: 0x06000013
 45c:	0b0b0117 	bleq	2c08c0 <__code_start-0x2fd3f740>
 460:	0b3b0b3a 	bleq	ec3150 <__code_start-0x2f13ceb0>
 464:	00001301 	andeq	r1, r0, r1, lsl #6
 468:	03000d07 	movweq	r0, #3335	; 0xd07
 46c:	3b0b3a0e 	blcc	2cecac <__code_start-0x2fd31354>
 470:	0013490b 	andseq	r4, r3, fp, lsl #18
 474:	01010800 	tsteq	r1, r0, lsl #16
 478:	13011349 	movwne	r1, #4937	; 0x1349
 47c:	21090000 	mrscs	r0, (UNDEF: 9)
 480:	2f134900 	svccs	0x00134900
 484:	0a00000b 	beq	4b8 <__code_start-0x2ffffb48>
 488:	0b0b0113 	bleq	2c08dc <__code_start-0x2fd3f724>
 48c:	0b3b0b3a 	bleq	ec317c <__code_start-0x2f13ce84>
 490:	00001301 	andeq	r1, r0, r1, lsl #6
 494:	03000d0b 	movweq	r0, #3339	; 0xd0b
 498:	3b0b3a0e 	blcc	2cecd8 <__code_start-0x2fd31328>
 49c:	3813490b 	ldmdacc	r3, {r0, r1, r3, r8, fp, lr}
 4a0:	0c00000b 	stceq	0, cr0, [r0], {11}
 4a4:	0b0b000f 	bleq	2c04e8 <__code_start-0x2fd3fb18>
 4a8:	0f0d0000 	svceq	0x000d0000
 4ac:	490b0b00 	stmdbmi	fp, {r8, r9, fp}
 4b0:	0e000013 	mcreq	0, 0, r0, cr0, cr3, {0}
 4b4:	13490026 	movtne	r0, #36902	; 0x9026
 4b8:	130f0000 	movwne	r0, #61440	; 0xf000
 4bc:	0b0e0301 	bleq	3810c8 <__code_start-0x2fc7ef38>
 4c0:	3b0b3a0b 	blcc	2cecf4 <__code_start-0x2fd3130c>
 4c4:	0013010b 	andseq	r0, r3, fp, lsl #2
 4c8:	000d1000 	andeq	r1, sp, r0
 4cc:	0b3a0803 	bleq	e824e0 <__code_start-0x2f17db20>
 4d0:	13490b3b 	movtne	r0, #39739	; 0x9b3b
 4d4:	00000b38 	andeq	r0, r0, r8, lsr fp
 4d8:	03011311 	movweq	r1, #4881	; 0x1311
 4dc:	3a050b0e 	bcc	14311c <__code_start-0x2febcee4>
 4e0:	010b3b0b 	tsteq	fp, fp, lsl #22
 4e4:	12000013 	andne	r0, r0, #19
 4e8:	0e03000d 	cdpeq	0, 0, cr0, cr3, cr13, {0}
 4ec:	0b3b0b3a 	bleq	ec31dc <__code_start-0x2f13ce24>
 4f0:	05381349 	ldreq	r1, [r8, #-841]!	; 0xfffffcb7
 4f4:	15130000 	ldrne	r0, [r3, #-0]
 4f8:	00192700 	andseq	r2, r9, r0, lsl #14
 4fc:	01151400 	tsteq	r5, r0, lsl #8
 500:	13491927 	movtne	r1, #39207	; 0x9927
 504:	00001301 	andeq	r1, r0, r1, lsl #6
 508:	49000515 	stmdbmi	r0, {r0, r2, r4, r8, sl}
 50c:	16000013 			; <UNDEFINED> instruction: 0x16000013
 510:	0e030113 	mcreq	1, 0, r0, cr3, cr3, {0}
 514:	0b3a050b 	bleq	e81948 <__code_start-0x2f17e6b8>
 518:	1301053b 	movwne	r0, #5435	; 0x153b
 51c:	0d170000 	ldceq	0, cr0, [r7, #-0]
 520:	3a0e0300 	bcc	381128 <__code_start-0x2fc7eed8>
 524:	49053b0b 	stmdbmi	r5, {r0, r1, r3, r8, r9, fp, ip, sp}
 528:	000b3813 	andeq	r3, fp, r3, lsl r8
 52c:	000d1800 	andeq	r1, sp, r0, lsl #16
 530:	0b3a0e03 	bleq	e83d44 <__code_start-0x2f17c2bc>
 534:	1349053b 	movtne	r0, #38203	; 0x953b
 538:	00000538 	andeq	r0, r0, r8, lsr r5
 53c:	03011319 	movweq	r1, #4889	; 0x1319
 540:	3a0b0b0e 	bcc	2c3180 <__code_start-0x2fd3ce80>
 544:	01053b0b 	tsteq	r5, fp, lsl #22
 548:	1a000013 	bne	59c <__code_start-0x2ffffa64>
 54c:	0b0b0113 	bleq	2c09a0 <__code_start-0x2fd3f660>
 550:	053b0b3a 	ldreq	r0, [fp, #-2874]!	; 0xfffff4c6
 554:	00001301 	andeq	r1, r0, r1, lsl #6
 558:	0b01171b 	bleq	461cc <__code_start-0x2ffb9e34>
 55c:	3b0b3a0b 	blcc	2ced90 <__code_start-0x2fd31270>
 560:	00130105 	andseq	r0, r3, r5, lsl #2
 564:	000d1c00 	andeq	r1, sp, r0, lsl #24
 568:	0b3a0e03 	bleq	e83d7c <__code_start-0x2f17c284>
 56c:	1349053b 	movtne	r0, #38203	; 0x953b
 570:	151d0000 	ldrne	r0, [sp, #-0]
 574:	01192701 	tsteq	r9, r1, lsl #14
 578:	1e000013 	mcrne	0, 0, r0, cr0, cr3, {0}
 57c:	0e030034 	mcreq	0, 0, r0, cr3, cr4, {1}
 580:	053b0b3a 	ldreq	r0, [fp, #-2874]!	; 0xfffff4c6
 584:	193f1349 	ldmdbne	pc!, {r0, r3, r6, r8, r9, ip}	; <UNPREDICTABLE>
 588:	0000193c 	andeq	r1, r0, ip, lsr r9
 58c:	0300341f 	movweq	r3, #1055	; 0x41f
 590:	3b0b3a0e 	blcc	2cedd0 <__code_start-0x2fd31230>
 594:	0213490b 	andseq	r4, r3, #180224	; 0x2c000
 598:	20000018 	andcs	r0, r0, r8, lsl r0
 59c:	13470034 	movtne	r0, #28724	; 0x7034
 5a0:	00001802 	andeq	r1, r0, r2, lsl #16
 5a4:	00110100 	andseq	r0, r1, r0, lsl #2
 5a8:	01110610 	tsteq	r1, r0, lsl r6
 5ac:	08030112 	stmdaeq	r3, {r1, r4, r8}
 5b0:	0825081b 	stmdaeq	r5!, {r0, r1, r3, r4, fp}
 5b4:	00000513 	andeq	r0, r0, r3, lsl r5
 5b8:	00110100 	andseq	r0, r1, r0, lsl #2
 5bc:	01110610 	tsteq	r1, r0, lsl r6
 5c0:	08030112 	stmdaeq	r3, {r1, r4, r8}
 5c4:	0825081b 	stmdaeq	r5!, {r0, r1, r3, r4, fp}
 5c8:	00000513 	andeq	r0, r0, r3, lsl r5
	...

Disassembly of section .debug_loc:

00000000 <.debug_loc>:
   0:	30001230 	andcc	r1, r0, r0, lsr r2
   4:	30001290 	mulcc	r0, r0, r2
   8:	90500001 	subsls	r0, r0, r1
   c:	90300012 	eorsls	r0, r0, r2, lsl r0
  10:	04300012 	ldrteq	r0, [r0], #-18	; 0xffffffee
  14:	5001f300 	andpl	pc, r1, r0, lsl #6
  18:	0000009f 	muleq	r0, pc, r0	; <UNPREDICTABLE>
  1c:	00000000 	andeq	r0, r0, r0
  20:	00023800 	andeq	r3, r2, r0, lsl #16
  24:	00024c00 	andeq	r4, r2, r0, lsl #24
  28:	50000100 	andpl	r0, r0, r0, lsl #2
  2c:	0000024c 	andeq	r0, r0, ip, asr #4
  30:	0000024f 	andeq	r0, r0, pc, asr #4
  34:	4f510001 	svcmi	0x00510001
  38:	54000002 	strpl	r0, [r0], #-2
  3c:	04000002 	streq	r0, [r0], #-2
  40:	5001f300 	andpl	pc, r1, r0, lsl #6
  44:	0000009f 	muleq	r0, pc, r0	; <UNPREDICTABLE>
  48:	00000000 	andeq	r0, r0, r0
  4c:	00023800 	andeq	r3, r2, r0, lsl #16
  50:	00024800 	andeq	r4, r2, r0, lsl #16
  54:	51000100 	mrspl	r0, (UNDEF: 16)
  58:	00000248 	andeq	r0, r0, r8, asr #4
  5c:	0000024f 	andeq	r0, r0, pc, asr #4
  60:	4f520001 	svcmi	0x00520001
  64:	54000002 	strpl	r0, [r0], #-2
  68:	04000002 	streq	r0, [r0], #-2
  6c:	5101f300 	mrspl	pc, SP_irq	; <UNPREDICTABLE>
  70:	0000009f 	muleq	r0, pc, r0	; <UNPREDICTABLE>
  74:	00000000 	andeq	r0, r0, r0
  78:	00023800 	andeq	r3, r2, r0, lsl #16
  7c:	00024400 	andeq	r4, r2, r0, lsl #8
  80:	52000100 	andpl	r0, r0, #0, 2
  84:	00000244 	andeq	r0, r0, r4, asr #4
  88:	0000024f 	andeq	r0, r0, pc, asr #4
  8c:	4f530001 	svcmi	0x00530001
  90:	54000002 	strpl	r0, [r0], #-2
  94:	04000002 	streq	r0, [r0], #-2
  98:	5201f300 	andpl	pc, r1, #0, 6
  9c:	0000009f 	muleq	r0, pc, r0	; <UNPREDICTABLE>
	...
  a8:	00007c00 	andeq	r7, r0, r0, lsl #24
  ac:	50000100 	andpl	r0, r0, r0, lsl #2
  b0:	0000007c 	andeq	r0, r0, ip, ror r0
  b4:	00000168 	andeq	r0, r0, r8, ror #2
  b8:	4c910002 	ldcmi	0, cr0, [r1], {2}
  bc:	00000168 	andeq	r0, r0, r8, ror #2
  c0:	000001b4 			; <UNDEFINED> instruction: 0x000001b4
  c4:	b4500001 	ldrblt	r0, [r0], #-1
  c8:	d0000001 	andle	r0, r0, r1
  cc:	02000001 	andeq	r0, r0, #1
  d0:	d04c9100 	suble	r9, ip, r0, lsl #2
  d4:	38000001 	stmdacc	r0, {r0}
  d8:	01000002 	tsteq	r0, r2
  dc:	00005000 	andeq	r5, r0, r0
	...
  e8:	00140000 	andseq	r0, r4, r0
  ec:	00010000 	andeq	r0, r1, r0
  f0:	00001451 	andeq	r1, r0, r1, asr r4
  f4:	00002800 	andeq	r2, r0, r0, lsl #16
  f8:	55000100 	strpl	r0, [r0, #-256]	; 0xffffff00
  fc:	00000028 	andeq	r0, r0, r8, lsr #32
 100:	00000238 	andeq	r0, r0, r8, lsr r2
 104:	48910002 	ldmmi	r1, {r1}
	...
 114:	00000028 	andeq	r0, r0, r8, lsr #32
 118:	28520001 	ldmdacs	r2, {r0}^
 11c:	54000000 	strpl	r0, [r0], #-0
 120:	01000001 	tsteq	r0, r1
 124:	01545a00 	cmpeq	r4, r0, lsl #20
 128:	01580000 	cmpeq	r8, r0
 12c:	00040000 	andeq	r0, r4, r0
 130:	9f5201f3 	svcls	0x005201f3
 134:	00000158 	andeq	r0, r0, r8, asr r1
 138:	00000238 	andeq	r0, r0, r8, lsr r2
 13c:	005a0001 	subseq	r0, sl, r1
	...
 148:	28000000 	stmdacs	r0, {}	; <UNPREDICTABLE>
 14c:	01000000 	mrseq	r0, (UNDEF: 0)
 150:	00285300 	eoreq	r5, r8, r0, lsl #6
 154:	01540000 	cmpeq	r4, r0
 158:	00010000 	andeq	r0, r1, r0
 15c:	00015857 	andeq	r5, r1, r7, asr r8
 160:	00019c00 	andeq	r9, r1, r0, lsl #24
 164:	57000100 	strpl	r0, [r0, -r0, lsl #2]
 168:	0000019c 	muleq	r0, ip, r1
 16c:	000001a0 	andeq	r0, r0, r0, lsr #3
 170:	01f30004 	mvnseq	r0, r4
 174:	01a09f53 	asreq	r9, r3, pc
 178:	01f40000 	mvnseq	r0, r0
 17c:	00010000 	andeq	r0, r1, r0
 180:	0001f457 	andeq	pc, r1, r7, asr r4	; <UNPREDICTABLE>
 184:	00020000 	andeq	r0, r2, r0
 188:	f3000400 	vshl.u8	d0, d0, d0
 18c:	009f5301 	addseq	r5, pc, r1, lsl #6
 190:	04000002 	streq	r0, [r0], #-2
 194:	02000002 	andeq	r0, r0, #2
 198:	049f4000 	ldreq	r4, [pc], #0	; 1a0 <__code_start-0x2ffffe60>
 19c:	18000002 	stmdane	r0, {r1}
 1a0:	01000002 	tsteq	r0, r2
 1a4:	02185700 	andseq	r5, r8, #0, 14
 1a8:	02200000 	eoreq	r0, r0, #0
 1ac:	00040000 	andeq	r0, r4, r0
 1b0:	9f5301f3 	svcls	0x005301f3
 1b4:	00000220 	andeq	r0, r0, r0, lsr #4
 1b8:	00000238 	andeq	r0, r0, r8, lsr r2
 1bc:	00570001 	subseq	r0, r7, r1
 1c0:	00000000 	andeq	r0, r0, r0
 1c4:	10000000 	andne	r0, r0, r0
 1c8:	14000000 	strne	r0, [r0], #-0
 1cc:	01000000 	mrseq	r0, (UNDEF: 0)
 1d0:	00145100 	andseq	r5, r4, r0, lsl #2
 1d4:	00540000 	subseq	r0, r4, r0
 1d8:	00010000 	andeq	r0, r1, r0
 1dc:	00005455 	andeq	r5, r0, r5, asr r4
 1e0:	00006800 	andeq	r6, r0, r0, lsl #16
 1e4:	53000100 	movwpl	r0, #256	; 0x100
 1e8:	00000068 	andeq	r0, r0, r8, rrx
 1ec:	00000140 	andeq	r0, r0, r0, asr #2
 1f0:	68550001 	ldmdavs	r5, {r0}^
 1f4:	d0000001 	andle	r0, r0, r1
 1f8:	01000001 	tsteq	r0, r1
 1fc:	01d05500 	bicseq	r5, r0, r0, lsl #10
 200:	01e00000 	mvneq	r0, r0
 204:	00010000 	andeq	r0, r1, r0
 208:	0001e053 	andeq	lr, r1, r3, asr r0
 20c:	00020400 	andeq	r0, r2, r0, lsl #8
 210:	55000100 	strpl	r0, [r0, #-256]	; 0xffffff00
 214:	00000204 	andeq	r0, r0, r4, lsl #4
 218:	0000020c 	andeq	r0, r0, ip, lsl #4
 21c:	02750003 	rsbseq	r0, r5, #3
 220:	00020c9f 	muleq	r2, pc, ip	; <UNPREDICTABLE>
 224:	00021000 	andeq	r1, r2, r0
 228:	53000100 	movwpl	r0, #256	; 0x100
 22c:	00000210 	andeq	r0, r0, r0, lsl r2
 230:	00000238 	andeq	r0, r0, r8, lsr r2
 234:	00550001 	subseq	r0, r5, r1
 238:	00000000 	andeq	r0, r0, r0
 23c:	90000000 	andls	r0, r0, r0
 240:	a4000000 	strge	r0, [r0], #-0
 244:	02000000 	andeq	r0, r0, #0
 248:	a49f3000 	ldrge	r3, [pc], #0	; 250 <__code_start-0x2ffffdb0>
 24c:	c0000000 	andgt	r0, r0, r0
 250:	01000000 	mrseq	r0, (UNDEF: 0)
 254:	00c05300 	sbceq	r5, r0, r0, lsl #6
 258:	00c80000 	sbceq	r0, r8, r0
 25c:	00060000 	andeq	r0, r6, r0
 260:	0073007b 	rsbseq	r0, r3, fp, ror r0
 264:	00c89f1e 	sbceq	r9, r8, lr, lsl pc
 268:	01480000 	mrseq	r0, (UNDEF: 72)
 26c:	00010000 	andeq	r0, r1, r0
 270:	00015853 	andeq	r5, r1, r3, asr r8
 274:	00015c00 	andeq	r5, r1, r0, lsl #24
 278:	53000100 	movwpl	r0, #256	; 0x100
 27c:	0000015c 	andeq	r0, r0, ip, asr r1
 280:	00000168 	andeq	r0, r0, r8, ror #2
 284:	b4590001 	ldrblt	r0, [r9], #-1
 288:	d0000001 	andle	r0, r0, r1
 28c:	01000001 	tsteq	r0, r1
 290:	00005900 	andeq	r5, r0, r0, lsl #18
 294:	00000000 	andeq	r0, r0, r0
 298:	00280000 	eoreq	r0, r8, r0
 29c:	002c0000 	eoreq	r0, ip, r0
 2a0:	00060000 	andeq	r0, r6, r0
 2a4:	ff080074 			; <UNDEFINED> instruction: 0xff080074
 2a8:	00349f1a 	eorseq	r9, r4, sl, lsl pc
 2ac:	00540000 	subseq	r0, r4, r0
 2b0:	00060000 	andeq	r0, r6, r0
 2b4:	ff080074 			; <UNDEFINED> instruction: 0xff080074
 2b8:	00549f1a 	subseq	r9, r4, sl, lsl pc
 2bc:	00740000 	rsbseq	r0, r4, r0
 2c0:	00010000 	andeq	r0, r1, r0
 2c4:	0000a454 	andeq	sl, r0, r4, asr r4
 2c8:	0000cc00 	andeq	ip, r0, r0, lsl #24
 2cc:	51000100 	mrspl	r0, (UNDEF: 16)
 2d0:	000000cc 	andeq	r0, r0, ip, asr #1
 2d4:	000000f8 	strdeq	r0, [r0], -r8
 2d8:	f8540001 			; <UNDEFINED> instruction: 0xf8540001
 2dc:	1c000000 	stcne	0, cr0, [r0], {-0}
 2e0:	01000001 	tsteq	r0, r1
 2e4:	01685100 	cmneq	r8, r0, lsl #2
 2e8:	01780000 	cmneq	r8, r0
 2ec:	00060000 	andeq	r0, r6, r0
 2f0:	ff080074 			; <UNDEFINED> instruction: 0xff080074
 2f4:	01789f1a 	cmneq	r8, sl, lsl pc
 2f8:	01800000 	orreq	r0, r0, r0
 2fc:	00080000 	andeq	r0, r8, r0
 300:	01940075 	orrseq	r0, r4, r5, ror r0
 304:	9f1aff08 	svcls	0x001aff08
 308:	00000180 	andeq	r0, r0, r0, lsl #3
 30c:	000001a0 	andeq	r0, r0, r0, lsr #3
 310:	d0540001 	subsle	r0, r4, r1
 314:	04000001 	streq	r0, [r0], #-1
 318:	01000002 	tsteq	r0, r2
 31c:	02045400 	andeq	r5, r4, #0, 8
 320:	02080000 	andeq	r0, r8, #0
 324:	00060000 	andeq	r0, r6, r0
 328:	ff080074 			; <UNDEFINED> instruction: 0xff080074
 32c:	02089f1a 	andeq	r9, r8, #26, 30	; 0x68
 330:	02100000 	andseq	r0, r0, #0
 334:	00010000 	andeq	r0, r1, r0
 338:	00021054 	andeq	r1, r2, r4, asr r0
 33c:	00021800 	andeq	r1, r2, r0, lsl #16
 340:	08000300 	stmdaeq	r0, {r8, r9}
 344:	02209f30 	eoreq	r9, r0, #48, 30	; 0xc0
 348:	02380000 	eorseq	r0, r8, #0
 34c:	00010000 	andeq	r0, r1, r0
 350:	00000054 	andeq	r0, r0, r4, asr r0
 354:	00000000 	andeq	r0, r0, r0
 358:	00007400 	andeq	r7, r0, r0, lsl #8
 35c:	00009000 	andeq	r9, r0, r0
 360:	59000100 	stmdbpl	r0, {r8}
 364:	00000090 	muleq	r0, r0, r0
 368:	0000014c 	andeq	r0, r0, ip, asr #2
 36c:	58500001 	ldmdapl	r0, {r0}^
 370:	68000001 	stmdavs	r0, {r0}
 374:	01000001 	tsteq	r0, r1
 378:	01b45000 			; <UNDEFINED> instruction: 0x01b45000
 37c:	01d00000 	bicseq	r0, r0, r0
 380:	00010000 	andeq	r0, r1, r0
 384:	00000050 	andeq	r0, r0, r0, asr r0
 388:	00000000 	andeq	r0, r0, r0
 38c:	00001000 	andeq	r1, r0, r0
 390:	00007400 	andeq	r7, r0, r0, lsl #8
 394:	30000200 	andcc	r0, r0, r0, lsl #4
 398:	0001689f 	muleq	r1, pc, r8	; <UNPREDICTABLE>
 39c:	00019000 	andeq	r9, r1, r0
 3a0:	31000200 	mrscc	r0, R8_usr
 3a4:	0001d09f 	muleq	r1, pc, r0	; <UNPREDICTABLE>
 3a8:	0001e000 	andeq	lr, r1, r0
 3ac:	30000200 	andcc	r0, r0, r0, lsl #4
 3b0:	0002049f 	muleq	r2, pc, r4	; <UNPREDICTABLE>
 3b4:	00021000 	andeq	r1, r2, r0
 3b8:	30000200 	andcc	r0, r0, r0, lsl #4
 3bc:	0002209f 	muleq	r2, pc, r0	; <UNPREDICTABLE>
 3c0:	00023800 	andeq	r3, r2, r0, lsl #16
 3c4:	31000200 	mrscc	r0, R8_usr
 3c8:	0000009f 	muleq	r0, pc, r0	; <UNPREDICTABLE>
 3cc:	00000000 	andeq	r0, r0, r0
 3d0:	00009000 	andeq	r9, r0, r0
 3d4:	0000a400 	andeq	sl, r0, r0, lsl #8
 3d8:	30000200 	andcc	r0, r0, r0, lsl #4
 3dc:	0000c09f 	muleq	r0, pc, r0	; <UNPREDICTABLE>
 3e0:	0000c800 	andeq	ip, r0, r0, lsl #16
 3e4:	31000200 	mrscc	r0, R8_usr
 3e8:	0000c89f 	muleq	r0, pc, r8	; <UNPREDICTABLE>
 3ec:	00011000 	andeq	r1, r1, r0
 3f0:	5c000100 	stfpls	f0, [r0], {-0}
 3f4:	0000011c 	andeq	r0, r0, ip, lsl r1
 3f8:	00000168 	andeq	r0, r0, r8, ror #2
 3fc:	b45c0001 	ldrblt	r0, [ip], #-1
 400:	d0000001 	andle	r0, r0, r1
 404:	01000001 	tsteq	r0, r1
 408:	00005c00 	andeq	r5, r0, r0, lsl #24
 40c:	00000000 	andeq	r0, r0, r0
 410:	00880000 	addeq	r0, r8, r0
 414:	008c0000 	addeq	r0, ip, r0
 418:	00010000 	andeq	r0, r1, r0
 41c:	00008c51 	andeq	r8, r0, r1, asr ip
 420:	00015400 	andeq	r5, r1, r0, lsl #8
 424:	58000100 	stmdapl	r0, {r8}
 428:	00000158 	andeq	r0, r0, r8, asr r1
 42c:	00000168 	andeq	r0, r0, r8, ror #2
 430:	b4580001 	ldrblt	r0, [r8], #-1
 434:	d0000001 	andle	r0, r0, r1
 438:	01000001 	tsteq	r0, r1
 43c:	00005800 	andeq	r5, r0, r0, lsl #16
 440:	00000000 	andeq	r0, r0, r0
	...

Disassembly of section .debug_aranges:

00000000 <.debug_aranges>:
   0:	0000001c 	andeq	r0, r0, ip, lsl r0
   4:	00000002 	andeq	r0, r0, r2
   8:	00040000 	andeq	r0, r4, r0
   c:	00000000 	andeq	r0, r0, r0
  10:	30001230 	andcc	r1, r0, r0, lsr r2
  14:	00000060 	andeq	r0, r0, r0, rrx
	...
  20:	0000001c 	andeq	r0, r0, ip, lsl r0
  24:	08b60002 	ldmeq	r6!, {r1}
  28:	00040000 	andeq	r0, r4, r0
  2c:	00000000 	andeq	r0, r0, r0
  30:	30001290 	mulcc	r0, r0, r2
  34:	00000254 	andeq	r0, r0, r4, asr r2
	...
  40:	00000014 	andeq	r0, r0, r4, lsl r0
  44:	12d20002 	sbcsne	r0, r2, #2
  48:	00040000 	andeq	r0, r4, r0
	...
  58:	00000014 	andeq	r0, r0, r4, lsl r0
  5c:	13920002 	orrsne	r0, r2, #2
  60:	00040000 	andeq	r0, r4, r0
	...
  70:	0000001c 	andeq	r0, r0, ip, lsl r0
  74:	1c370002 	ldcne	0, cr0, [r7], #-8
  78:	00040000 	andeq	r0, r4, r0
  7c:	00000000 	andeq	r0, r0, r0
  80:	300014e4 	andcc	r1, r0, r4, ror #9
  84:	00000114 	andeq	r0, r0, r4, lsl r1
	...
  90:	0000001c 	andeq	r0, r0, ip, lsl r0
  94:	1ce50002 	stclne	0, cr0, [r5], #8
  98:	00040000 	andeq	r0, r4, r0
  9c:	00000000 	andeq	r0, r0, r0
  a0:	300015f8 	strdcc	r1, [r0], -r8
  a4:	00000004 	andeq	r0, r0, r4
	...

Disassembly of section .debug_ranges:

00000000 <.debug_ranges>:
   0:	30001230 	andcc	r1, r0, r0, lsr r2
   4:	30001290 	mulcc	r0, r0, r2
	...

Disassembly of section .debug_line:

00000000 <.debug_line>:
   0:	00000148 	andeq	r0, r0, r8, asr #2
   4:	01320002 	teqeq	r2, r2
   8:	01020000 	mrseq	r0, (UNDEF: 2)
   c:	000d0efb 	strdeq	r0, [sp], -fp
  10:	01010101 	tsteq	r1, r1, lsl #2
  14:	01000000 	mrseq	r0, (UNDEF: 0)
  18:	2e010000 	cdpcs	0, 0, cr0, cr1, cr0, {0}
  1c:	2e2e2f2e 	cdpcs	15, 2, cr2, cr14, cr14, {1}
  20:	2f2e2e2f 	svccs	0x002e2e2f
  24:	2e2f2e2e 	cdpcs	14, 2, cr2, cr15, cr14, {1}
  28:	2e2e2f2e 	cdpcs	15, 2, cr2, cr14, cr14, {1}
  2c:	77656e2f 	strbvc	r6, [r5, -pc, lsr #28]!
  30:	2f62696c 	svccs	0x0062696c
  34:	6362696c 	cmnvs	r2, #108, 18	; 0x1b0000
  38:	63616d2f 	cmnvs	r1, #3008	; 0xbc0
  3c:	656e6968 	strbvs	r6, [lr, #-2408]!	; 0xfffff698
  40:	6d72612f 	ldfvse	f6, [r2, #-188]!	; 0xffffff44
  44:	73752f00 	cmnvc	r5, #0, 30
  48:	696c2f72 	stmdbvs	ip!, {r1, r4, r5, r6, r8, r9, sl, fp, sp}^
  4c:	63672f62 	cmnvs	r7, #392	; 0x188
  50:	72612f63 	rsbvc	r2, r1, #396	; 0x18c
  54:	6f6e2d6d 	svcvs	0x006e2d6d
  58:	652d656e 	strvs	r6, [sp, #-1390]!	; 0xfffffa92
  5c:	2f696261 	svccs	0x00696261
  60:	2e332e36 	mrccs	14, 1, r2, cr3, cr6, {1}
  64:	6e692f31 	mcrvs	15, 3, r2, cr9, cr1, {1}
  68:	64756c63 	ldrbtvs	r6, [r5], #-3171	; 0xfffff39d
  6c:	622f0065 	eorvs	r0, pc, #101	; 0x65
  70:	646c6975 	strbtvs	r6, [ip], #-2421	; 0xfffff68b
  74:	77656e2f 	strbvc	r6, [r5, -pc, lsr #28]!
  78:	2d62696c 			; <UNDEFINED> instruction: 0x2d62696c
  7c:	78336f6a 	ldmdavc	r3!, {r1, r3, r5, r6, r8, r9, sl, fp, sp, lr}
  80:	6e2f3157 	mcrvs	1, 1, r3, cr15, cr7, {2}
  84:	696c7765 	stmdbvs	ip!, {r0, r2, r5, r6, r8, r9, sl, ip, sp, lr}^
  88:	2e322d62 	cdpcs	13, 3, cr2, cr2, cr2, {3}
  8c:	2e302e34 	mrccs	14, 1, r2, cr0, cr4, {1}
  90:	36313032 			; <UNDEFINED> instruction: 0x36313032
  94:	37323530 			; <UNDEFINED> instruction: 0x37323530
  98:	77656e2f 	strbvc	r6, [r5, -pc, lsr #28]!
  9c:	2f62696c 	svccs	0x0062696c
  a0:	6362696c 	cmnvs	r2, #108, 18	; 0x1b0000
  a4:	636e692f 	cmnvs	lr, #770048	; 0xbc000
  a8:	6564756c 	strbvs	r7, [r4, #-1388]!	; 0xfffffa94
  ac:	7379732f 	cmnvc	r9, #-1140850688	; 0xbc000000
  b0:	75622f00 	strbvc	r2, [r2, #-3840]!	; 0xfffff100
  b4:	2f646c69 	svccs	0x00646c69
  b8:	6c77656e 	cfldr64vs	mvdx6, [r7], #-440	; 0xfffffe48
  bc:	6a2d6269 	bvs	b58a68 <__code_start-0x2f4a7598>
  c0:	5778336f 	ldrbpl	r3, [r8, -pc, ror #6]!
  c4:	656e2f31 	strbvs	r2, [lr, #-3889]!	; 0xfffff0cf
  c8:	62696c77 	rsbvs	r6, r9, #30464	; 0x7700
  cc:	342e322d 	strtcc	r3, [lr], #-557	; 0xfffffdd3
  d0:	322e302e 	eorcc	r3, lr, #46	; 0x2e
  d4:	30363130 	eorscc	r3, r6, r0, lsr r1
  d8:	2f373235 	svccs	0x00373235
  dc:	6c77656e 	cfldr64vs	mvdx6, [r7], #-440	; 0xfffffe48
  e0:	6c2f6269 	sfmvs	f6, 4, [pc], #-420	; ffffff44 <_end+0xcfffe04c>
  e4:	2f636269 	svccs	0x00636269
  e8:	6c636e69 	stclvs	14, cr6, [r3], #-420	; 0xfffffe5c
  ec:	00656475 	rsbeq	r6, r5, r5, ror r4
  f0:	72747300 	rsbsvc	r7, r4, #0, 6
  f4:	2d6e656c 	cfstr64cs	mvdx6, [lr, #-432]!	; 0xfffffe50
  f8:	62757473 	rsbsvs	r7, r5, #1929379840	; 0x73000000
  fc:	0100632e 	tsteq	r0, lr, lsr #6
 100:	74730000 	ldrbtvc	r0, [r3], #-0
 104:	66656464 	strbtvs	r6, [r5], -r4, ror #8
 108:	0200682e 	andeq	r6, r0, #3014656	; 0x2e0000
 10c:	6f6c0000 	svcvs	0x006c0000
 110:	682e6b63 	stmdavs	lr!, {r0, r1, r5, r6, r8, r9, fp, sp, lr}
 114:	00000300 	andeq	r0, r0, r0, lsl #6
 118:	7079745f 	rsbsvc	r7, r9, pc, asr r4
 11c:	682e7365 	stmdavs	lr!, {r0, r2, r5, r6, r8, r9, ip, sp, lr}
 120:	00000300 	andeq	r0, r0, r0, lsl #6
 124:	6e656572 	mcrvs	5, 3, r6, cr5, cr2, {3}
 128:	00682e74 	rsbeq	r2, r8, r4, ror lr
 12c:	73000003 	movwvc	r0, #3
 130:	6e697274 	mcrvs	2, 3, r7, cr9, cr4, {3}
 134:	00682e67 	rsbeq	r2, r8, r7, ror #28
 138:	00000004 	andeq	r0, r0, r4
 13c:	30020500 	andcc	r0, r2, r0, lsl #10
 140:	03300012 	teqeq	r0, #18
 144:	02130137 	andseq	r0, r3, #-1073741811	; 0xc000000d
 148:	01010030 	tsteq	r1, r0, lsr r0
 14c:	00000200 	andeq	r0, r0, r0, lsl #4
 150:	013b0002 	teqeq	fp, r2
 154:	01020000 	mrseq	r0, (UNDEF: 2)
 158:	000d0efb 	strdeq	r0, [sp], -fp
 15c:	01010101 	tsteq	r1, r1, lsl #2
 160:	01000000 	mrseq	r0, (UNDEF: 0)
 164:	2e010000 	cdpcs	0, 0, cr0, cr1, cr0, {0}
 168:	2e2e2f2e 	cdpcs	15, 2, cr2, cr14, cr14, {1}
 16c:	2f2e2e2f 	svccs	0x002e2e2f
 170:	2e2f2e2e 	cdpcs	14, 2, cr2, cr15, cr14, {1}
 174:	656e2f2e 	strbvs	r2, [lr, #-3886]!	; 0xfffff0d2
 178:	62696c77 	rsbvs	r6, r9, #30464	; 0x7700
 17c:	62696c2f 	rsbvs	r6, r9, #12032	; 0x2f00
 180:	74732f63 	ldrbtvc	r2, [r3], #-3939	; 0xfffff09d
 184:	62696c64 	rsbvs	r6, r9, #100, 24	; 0x6400
 188:	75622f00 	strbvc	r2, [r2, #-3840]!	; 0xfffff100
 18c:	2f646c69 	svccs	0x00646c69
 190:	6c77656e 	cfldr64vs	mvdx6, [r7], #-440	; 0xfffffe48
 194:	6a2d6269 	bvs	b58b40 <__code_start-0x2f4a74c0>
 198:	5778336f 	ldrbpl	r3, [r8, -pc, ror #6]!
 19c:	656e2f31 	strbvs	r2, [lr, #-3889]!	; 0xfffff0cf
 1a0:	62696c77 	rsbvs	r6, r9, #30464	; 0x7700
 1a4:	342e322d 	strtcc	r3, [lr], #-557	; 0xfffffdd3
 1a8:	322e302e 	eorcc	r3, lr, #46	; 0x2e
 1ac:	30363130 	eorscc	r3, r6, r0, lsr r1
 1b0:	2f373235 	svccs	0x00373235
 1b4:	6c77656e 	cfldr64vs	mvdx6, [r7], #-440	; 0xfffffe48
 1b8:	6c2f6269 	sfmvs	f6, 4, [pc], #-420	; 1c <__code_start-0x2fffffe4>
 1bc:	2f636269 	svccs	0x00636269
 1c0:	6c636e69 	stclvs	14, cr6, [r3], #-420	; 0xfffffe5c
 1c4:	00656475 	rsbeq	r6, r5, r5, ror r4
 1c8:	6975622f 	ldmdbvs	r5!, {r0, r1, r2, r3, r5, r9, sp, lr}^
 1cc:	6e2f646c 	cdpvs	4, 2, cr6, cr15, cr12, {3}
 1d0:	696c7765 	stmdbvs	ip!, {r0, r2, r5, r6, r8, r9, sl, ip, sp, lr}^
 1d4:	6f6a2d62 	svcvs	0x006a2d62
 1d8:	31577833 	cmpcc	r7, r3, lsr r8
 1dc:	77656e2f 	strbvc	r6, [r5, -pc, lsr #28]!
 1e0:	2d62696c 			; <UNDEFINED> instruction: 0x2d62696c
 1e4:	2e342e32 	mrccs	14, 1, r2, cr4, cr2, {1}
 1e8:	30322e30 	eorscc	r2, r2, r0, lsr lr
 1ec:	35303631 	ldrcc	r3, [r0, #-1585]!	; 0xfffff9cf
 1f0:	6e2f3732 	mcrvs	7, 1, r3, cr15, cr2, {1}
 1f4:	696c7765 	stmdbvs	ip!, {r0, r2, r5, r6, r8, r9, sl, ip, sp, lr}^
 1f8:	696c2f62 	stmdbvs	ip!, {r1, r5, r6, r8, r9, sl, fp, sp}^
 1fc:	692f6362 	stmdbvs	pc!, {r1, r5, r6, r8, r9, sp, lr}	; <UNPREDICTABLE>
 200:	756c636e 	strbvc	r6, [ip, #-878]!	; 0xfffffc92
 204:	732f6564 			; <UNDEFINED> instruction: 0x732f6564
 208:	2f007379 	svccs	0x00007379
 20c:	2f727375 	svccs	0x00727375
 210:	2f62696c 	svccs	0x0062696c
 214:	2f636367 	svccs	0x00636367
 218:	2d6d7261 	sfmcs	f7, 2, [sp, #-388]!	; 0xfffffe7c
 21c:	656e6f6e 	strbvs	r6, [lr, #-3950]!	; 0xfffff092
 220:	6261652d 	rsbvs	r6, r1, #188743680	; 0xb400000
 224:	2e362f69 	cdpcs	15, 3, cr2, cr6, cr9, {3}
 228:	2f312e33 	svccs	0x00312e33
 22c:	6c636e69 	stclvs	14, cr6, [r3], #-420	; 0xfffffe5c
 230:	00656475 	rsbeq	r6, r5, r5, ror r4
 234:	72747300 	rsbsvc	r7, r4, #0, 6
 238:	2e6c6f74 	mcrcs	15, 3, r6, cr12, cr4, {3}
 23c:	00010063 	andeq	r0, r1, r3, rrx
 240:	79746300 	ldmdbvc	r4!, {r8, r9, sp, lr}^
 244:	682e6570 	stmdavs	lr!, {r4, r5, r6, r8, sl, sp, lr}
 248:	00000200 	andeq	r0, r0, r0, lsl #4
 24c:	6b636f6c 	blvs	18dc004 <__code_start-0x2e723ffc>
 250:	0300682e 	movweq	r6, #2094	; 0x82e
 254:	745f0000 	ldrbvc	r0, [pc], #-0	; 25c <__code_start-0x2ffffda4>
 258:	73657079 	cmnvc	r5, #121	; 0x79
 25c:	0300682e 	movweq	r6, #2094	; 0x82e
 260:	74730000 	ldrbtvc	r0, [r3], #-0
 264:	66656464 	strbtvs	r6, [r5], -r4, ror #8
 268:	0400682e 	streq	r6, [r0], #-2094	; 0xfffff7d2
 26c:	65720000 	ldrbvs	r0, [r2, #-0]!
 270:	2e746e65 	cdpcs	14, 7, cr6, cr4, cr5, {3}
 274:	00030068 	andeq	r0, r3, r8, rrx
 278:	72726500 	rsbsvc	r6, r2, #0, 10
 27c:	682e6f6e 	stmdavs	lr!, {r1, r2, r3, r5, r6, r8, r9, sl, fp, sp, lr}
 280:	00000300 	andeq	r0, r0, r0, lsl #6
 284:	6c647473 	cfstrdvs	mvd7, [r4], #-460	; 0xfffffe34
 288:	682e6269 	stmdavs	lr!, {r0, r3, r5, r6, r9, sp, lr}
 28c:	00000200 	andeq	r0, r0, r0, lsl #4
 290:	02050000 	andeq	r0, r5, #0
 294:	30001290 	mulcc	r0, r0, r2
 298:	01018a03 	tsteq	r1, r3, lsl #20
 29c:	0402004a 	streq	r0, [r2], #-74	; 0xffffffb6
 2a0:	080d0301 	stmdaeq	sp, {r0, r8, r9}
 2a4:	04020020 	streq	r0, [r2], #-32	; 0xffffffe0
 2a8:	4d834b01 	vstrmi	d4, [r3, #4]
 2ac:	ba1a034c 	blt	680fe4 <__code_start-0x2f97f01c>
 2b0:	002e6603 	eoreq	r6, lr, r3, lsl #12
 2b4:	03040402 	movweq	r0, #17410	; 0x4402
 2b8:	02002e1b 	andeq	r2, r0, #432	; 0x1b0
 2bc:	00670404 	rsbeq	r0, r7, r4, lsl #8
 2c0:	2d040402 	cfstrscs	mvf0, [r4, #-8]
 2c4:	04040200 	streq	r0, [r4], #-512	; 0xfffffe00
 2c8:	0402002f 	streq	r0, [r2], #-47	; 0xffffffd1
 2cc:	02004b04 	andeq	r4, r0, #4, 22	; 0x1000
 2d0:	0a030404 	beq	c12e8 <__code_start-0x2ff3ed18>
 2d4:	0402002e 	streq	r0, [r2], #-46	; 0xffffffd2
 2d8:	2e760304 	cdpcs	3, 7, cr0, cr6, cr4, {0}
 2dc:	04040200 	streq	r0, [r4], #-512	; 0xfffffe00
 2e0:	002e0c03 	eoreq	r0, lr, r3, lsl #24
 2e4:	47010402 	strmi	r0, [r1, -r2, lsl #8]
 2e8:	720330d9 	andvc	r3, r3, #217	; 0xd9
 2ec:	2d672f2e 	stclcs	15, cr2, [r7, #-184]!	; 0xffffff48
 2f0:	4c854b30 	vstmiami	r5, {d4-d27}
 2f4:	4b4d519f 	blmi	1354978 <__code_start-0x2ecab688>
 2f8:	02004b2f 	andeq	r4, r0, #48128	; 0xbc00
 2fc:	66060404 	strvs	r0, [r6], -r4, lsl #8
 300:	02003006 	andeq	r3, r0, #6
 304:	039c0104 	orrseq	r0, ip, #4, 2
 308:	2d63664c 	stclcs	6, cr6, [r3, #-304]!	; 0xfffffed0
 30c:	00322d2f 	eorseq	r2, r2, pc, lsr #26
 310:	06010402 	streq	r0, [r1], -r2, lsl #8
 314:	6750062e 	ldrbvs	r0, [r0, -lr, lsr #12]
 318:	002e1303 	eoreq	r1, lr, r3, lsl #6
 31c:	03040402 	movweq	r0, #17410	; 0x4402
 320:	02009e16 	andeq	r9, r0, #352	; 0x160
 324:	004d0404 	subeq	r0, sp, r4, lsl #8
 328:	2b040402 	blcs	101338 <__code_start-0x2fefecc8>
 32c:	04040200 	streq	r0, [r4], #-512	; 0xfffffe00
 330:	0402002d 	streq	r0, [r2], #-45	; 0xffffffd3
 334:	4d033204 	sfmmi	f3, 4, [r3, #-16]
 338:	2d84834a 	stccs	3, cr8, [r4, #296]	; 0x128
 33c:	6d462d30 	stclvs	13, cr2, [r6, #-192]	; 0xffffff40
 340:	4a75034b 	bmi	1d41074 <__code_start-0x2e2bef8c>
 344:	03661e03 	cmneq	r6, #3, 28	; 0x30
 348:	02136625 	andseq	r6, r3, #38797312	; 0x2500000
 34c:	0101000e 	tsteq	r1, lr
 350:	00000063 	andeq	r0, r0, r3, rrx
 354:	005d0002 	subseq	r0, sp, r2
 358:	01020000 	mrseq	r0, (UNDEF: 2)
 35c:	000d0efb 	strdeq	r0, [sp], -fp
 360:	01010101 	tsteq	r1, r1, lsl #2
 364:	01000000 	mrseq	r0, (UNDEF: 0)
 368:	2f010000 	svccs	0x00010000
 36c:	6c697562 	cfstr64vs	mvdx7, [r9], #-392	; 0xfffffe78
 370:	656e2f64 	strbvs	r2, [lr, #-3940]!	; 0xfffff09c
 374:	62696c77 	rsbvs	r6, r9, #30464	; 0x7700
 378:	336f6a2d 	cmncc	pc, #184320	; 0x2d000
 37c:	2f315778 	svccs	0x00315778
 380:	6c77656e 	cfldr64vs	mvdx6, [r7], #-440	; 0xfffffe48
 384:	322d6269 	eorcc	r6, sp, #-1879048186	; 0x90000006
 388:	302e342e 	eorcc	r3, lr, lr, lsr #8
 38c:	3130322e 	teqcc	r0, lr, lsr #4
 390:	32353036 	eorscc	r3, r5, #54	; 0x36
 394:	656e2f37 	strbvs	r2, [lr, #-3895]!	; 0xfffff0c9
 398:	62696c77 	rsbvs	r6, r9, #30464	; 0x7700
 39c:	62696c2f 	rsbvs	r6, r9, #12032	; 0x2f00
 3a0:	6e692f63 	cdpvs	15, 6, cr2, cr9, cr3, {3}
 3a4:	64756c63 	ldrbtvs	r6, [r5], #-3171	; 0xfffff39d
 3a8:	63000065 	movwvs	r0, #101	; 0x65
 3ac:	65707974 	ldrbvs	r7, [r0, #-2420]!	; 0xfffff68c
 3b0:	0100682e 	tsteq	r0, lr, lsr #16
 3b4:	df000000 	svcle	0x00000000
 3b8:	02000000 	andeq	r0, r0, #0
 3bc:	0000d900 	andeq	sp, r0, r0, lsl #18
 3c0:	fb010200 	blx	40bca <__code_start-0x2ffbf436>
 3c4:	01000d0e 	tsteq	r0, lr, lsl #26
 3c8:	00010101 	andeq	r0, r1, r1, lsl #2
 3cc:	00010000 	andeq	r0, r1, r0
 3d0:	622f0100 	eorvs	r0, pc, #0, 2
 3d4:	646c6975 	strbtvs	r6, [ip], #-2421	; 0xfffff68b
 3d8:	77656e2f 	strbvc	r6, [r5, -pc, lsr #28]!
 3dc:	2d62696c 			; <UNDEFINED> instruction: 0x2d62696c
 3e0:	78336f6a 	ldmdavc	r3!, {r1, r3, r5, r6, r8, r9, sl, fp, sp, lr}
 3e4:	6e2f3157 	mcrvs	1, 1, r3, cr15, cr7, {2}
 3e8:	696c7765 	stmdbvs	ip!, {r0, r2, r5, r6, r8, r9, sl, ip, sp, lr}^
 3ec:	2e322d62 	cdpcs	13, 3, cr2, cr2, cr2, {3}
 3f0:	2e302e34 	mrccs	14, 1, r2, cr0, cr4, {1}
 3f4:	36313032 			; <UNDEFINED> instruction: 0x36313032
 3f8:	37323530 			; <UNDEFINED> instruction: 0x37323530
 3fc:	77656e2f 	strbvc	r6, [r5, -pc, lsr #28]!
 400:	2f62696c 	svccs	0x0062696c
 404:	6362696c 	cmnvs	r2, #108, 18	; 0x1b0000
 408:	636e692f 	cmnvs	lr, #770048	; 0xbc000
 40c:	6564756c 	strbvs	r7, [r4, #-1388]!	; 0xfffffa94
 410:	7379732f 	cmnvc	r9, #-1140850688	; 0xbc000000
 414:	73752f00 	cmnvc	r5, #0, 30
 418:	696c2f72 	stmdbvs	ip!, {r1, r4, r5, r6, r8, r9, sl, fp, sp}^
 41c:	63672f62 	cmnvs	r7, #392	; 0x188
 420:	72612f63 	rsbvc	r2, r1, #396	; 0x18c
 424:	6f6e2d6d 	svcvs	0x006e2d6d
 428:	652d656e 	strvs	r6, [sp, #-1390]!	; 0xfffffa92
 42c:	2f696261 	svccs	0x00696261
 430:	2e332e36 	mrccs	14, 1, r2, cr3, cr6, {1}
 434:	6e692f31 	mcrvs	15, 3, r2, cr9, cr1, {1}
 438:	64756c63 	ldrbtvs	r6, [r5], #-3171	; 0xfffff39d
 43c:	2e2e0065 	cdpcs	0, 2, cr0, cr14, cr5, {3}
 440:	2f2e2e2f 	svccs	0x002e2e2f
 444:	2e2f2e2e 	cdpcs	14, 2, cr2, cr15, cr14, {1}
 448:	2e2e2f2e 	cdpcs	15, 2, cr2, cr14, cr14, {1}
 44c:	77656e2f 	strbvc	r6, [r5, -pc, lsr #28]!
 450:	2f62696c 	svccs	0x0062696c
 454:	6362696c 	cmnvs	r2, #108, 18	; 0x1b0000
 458:	6565722f 	strbvs	r7, [r5, #-559]!	; 0xfffffdd1
 45c:	0000746e 	andeq	r7, r0, lr, ror #8
 460:	6b636f6c 	blvs	18dc218 <__code_start-0x2e723de8>
 464:	0100682e 	tsteq	r0, lr, lsr #16
 468:	745f0000 	ldrbvc	r0, [pc], #-0	; 470 <__code_start-0x2ffffb90>
 46c:	73657079 	cmnvc	r5, #121	; 0x79
 470:	0100682e 	tsteq	r0, lr, lsr #16
 474:	74730000 	ldrbtvc	r0, [r3], #-0
 478:	66656464 	strbtvs	r6, [r5], -r4, ror #8
 47c:	0200682e 	andeq	r6, r0, #3014656	; 0x2e0000
 480:	65720000 	ldrbvs	r0, [r2, #-0]!
 484:	2e746e65 	cdpcs	14, 7, cr6, cr4, cr5, {3}
 488:	00010068 	andeq	r0, r1, r8, rrx
 48c:	706d6900 	rsbvc	r6, sp, r0, lsl #18
 490:	2e657275 	mcrcs	2, 3, r7, cr5, cr5, {3}
 494:	00030063 	andeq	r0, r3, r3, rrx
 498:	00740000 	rsbseq	r0, r4, r0
 49c:	00020000 	andeq	r0, r2, r0
 4a0:	00000041 	andeq	r0, r0, r1, asr #32
 4a4:	0efb0102 	cdpeq	1, 15, cr0, cr11, cr2, {0}
 4a8:	0101000d 	tsteq	r1, sp
 4ac:	00000101 	andeq	r0, r0, r1, lsl #2
 4b0:	00000100 	andeq	r0, r0, r0, lsl #2
 4b4:	2f2e2e01 	svccs	0x002e2e01
 4b8:	2e2f2e2e 	cdpcs	14, 2, cr2, cr15, cr14, {1}
 4bc:	72732f2e 	rsbsvc	r2, r3, #46, 30	; 0xb8
 4c0:	696c2f63 	stmdbvs	ip!, {r0, r1, r5, r6, r8, r9, sl, fp, sp}^
 4c4:	63636762 	cmnvs	r3, #25690112	; 0x1880000
 4c8:	6e6f632f 	cdpvs	3, 6, cr6, cr15, cr15, {1}
 4cc:	2f676966 	svccs	0x00676966
 4d0:	006d7261 	rsbeq	r7, sp, r1, ror #4
 4d4:	62696c00 	rsbvs	r6, r9, #0, 24
 4d8:	6e756631 	mrcvs	6, 3, r6, cr5, cr1, {1}
 4dc:	532e7363 			; <UNDEFINED> instruction: 0x532e7363
 4e0:	00000100 	andeq	r0, r0, r0, lsl #2
 4e4:	02050000 	andeq	r0, r5, #0
 4e8:	300014e4 	andcc	r1, r0, r4, ror #9
 4ec:	0108fd03 	tsteq	r8, r3, lsl #26	; <UNPREDICTABLE>
 4f0:	2f2f2f30 	svccs	0x002f2f30
 4f4:	02302f2f 	eorseq	r2, r0, #47, 30	; 0xbc
 4f8:	312f143e 			; <UNDEFINED> instruction: 0x312f143e
 4fc:	08302f2f 	ldmdaeq	r0!, {r0, r1, r2, r3, r5, r8, r9, sl, fp, sp}
 500:	03322f92 	teqeq	r2, #584	; 0x248
 504:	2f2f661f 	svccs	0x002f661f
 508:	2f2f2f2f 	svccs	0x002f2f2f
 50c:	0002022f 	andeq	r0, r2, pc, lsr #4
 510:	00570101 	subseq	r0, r7, r1, lsl #2
 514:	00020000 	andeq	r0, r2, r0
 518:	00000041 	andeq	r0, r0, r1, asr #32
 51c:	0efb0102 	cdpeq	1, 15, cr0, cr11, cr2, {0}
 520:	0101000d 	tsteq	r1, sp
 524:	00000101 	andeq	r0, r0, r1, lsl #2
 528:	00000100 	andeq	r0, r0, r0, lsl #2
 52c:	2f2e2e01 	svccs	0x002e2e01
 530:	2e2f2e2e 	cdpcs	14, 2, cr2, cr15, cr14, {1}
 534:	72732f2e 	rsbsvc	r2, r3, #46, 30	; 0xb8
 538:	696c2f63 	stmdbvs	ip!, {r0, r1, r5, r6, r8, r9, sl, fp, sp}^
 53c:	63636762 	cmnvs	r3, #25690112	; 0x1880000
 540:	6e6f632f 	cdpvs	3, 6, cr6, cr15, cr15, {1}
 544:	2f676966 	svccs	0x00676966
 548:	006d7261 	rsbeq	r7, sp, r1, ror #4
 54c:	62696c00 	rsbvs	r6, r9, #0, 24
 550:	6e756631 	mrcvs	6, 3, r6, cr5, cr1, {1}
 554:	532e7363 			; <UNDEFINED> instruction: 0x532e7363
 558:	00000100 	andeq	r0, r0, r0, lsl #2
 55c:	02050000 	andeq	r0, r5, #0
 560:	300015f8 	strdcc	r1, [r0], -r8
 564:	010be703 	tsteq	fp, r3, lsl #14
 568:	01000202 	tsteq	r0, r2, lsl #4
 56c:	Address 0x000000000000056c is out of bounds.


Disassembly of section .debug_str:

00000000 <.debug_str>:
   0:	6f73645f 	svcvs	0x0073645f
   4:	6e61685f 	mcrvs	8, 3, r6, cr1, cr15, {2}
   8:	00656c64 	rsbeq	r6, r5, r4, ror #24
   c:	7a69735f 	bvc	1a5cd90 <__code_start-0x2e5a3270>
  10:	69730065 	ldmdbvs	r3!, {r0, r2, r5, r6}^
  14:	745f657a 	ldrbvc	r6, [pc], #-1402	; 1c <__code_start-0x2fffffe4>
  18:	61725f00 	cmnvs	r2, r0, lsl #30
  1c:	3834646e 	ldmdacc	r4!, {r1, r2, r3, r5, r6, sl, sp, lr}
  20:	6d655f00 	stclvs	15, cr5, [r5, #-0]
  24:	65677265 	strbvs	r7, [r7, #-613]!	; 0xfffffd9b
  28:	0079636e 	rsbseq	r6, r9, lr, ror #6
  2c:	7263775f 	rsbvc	r7, r3, #24903680	; 0x17c0000
  30:	626d6f74 	rsbvs	r6, sp, #116, 30	; 0x1d0
  34:	6174735f 	cmnvs	r4, pc, asr r3
  38:	5f006574 	svcpl	0x00006574
  3c:	72736377 	rsbsvc	r6, r3, #-603979775	; 0xdc000001
  40:	626d6f74 	rsbvs	r6, sp, #116, 30	; 0x1d0
  44:	74735f73 	ldrbtvc	r5, [r3], #-3955	; 0xfffff08d
  48:	00657461 	rsbeq	r7, r5, r1, ror #8
  4c:	676e6f6c 	strbvs	r6, [lr, -ip, ror #30]!
  50:	6e6f6c20 	cdpvs	12, 6, cr6, cr15, cr0, {1}
  54:	6e752067 	cdpvs	0, 7, cr2, cr5, cr7, {3}
  58:	6e676973 			; <UNDEFINED> instruction: 0x6e676973
  5c:	69206465 	stmdbvs	r0!, {r0, r2, r5, r6, sl, sp, lr}
  60:	5f00746e 	svcpl	0x0000746e
  64:	7366626c 	cmnvc	r6, #108, 4	; 0xc0000006
  68:	00657a69 	rsbeq	r7, r5, r9, ror #20
  6c:	72626d5f 	rsbvc	r6, r2, #6080	; 0x17c0
  70:	63776f74 	cmnvs	r7, #116, 30	; 0x1d0
  74:	6174735f 	cmnvs	r4, pc, asr r3
  78:	5f006574 	svcpl	0x00006574
  7c:	6f746377 	svcvs	0x00746377
  80:	735f626d 	cmpvc	pc, #-805306362	; 0xd0000006
  84:	65746174 	ldrbvs	r6, [r4, #-372]!	; 0xfffffe8c
  88:	745f5f00 	ldrbvc	r5, [pc], #-3840	; 90 <__code_start-0x2fffff70>
  8c:	65735f6d 	ldrbvs	r5, [r3, #-3949]!	; 0xfffff093
  90:	6f6c0063 	svcvs	0x006c0063
  94:	6c20676e 	stcvs	7, cr6, [r0], #-440	; 0xfffffe48
  98:	20676e6f 	rsbcs	r6, r7, pc, ror #28
  9c:	00746e69 	rsbseq	r6, r4, r9, ror #28
  a0:	7562755f 	strbvc	r7, [r2, #-1375]!	; 0xfffffaa1
  a4:	625f0066 	subsvs	r0, pc, #102	; 0x66
  a8:	00657361 	rsbeq	r7, r5, r1, ror #6
  ac:	6d745f5f 	ldclvs	15, cr5, [r4, #-380]!	; 0xfffffe84
  b0:	756f685f 	strbvc	r6, [pc, #-2143]!	; fffff859 <_end+0xcfffd961>
  b4:	5f5f0072 	svcpl	0x005f0072
  b8:	5f006673 	svcpl	0x00006673
  bc:	655f6e6f 	ldrbvs	r6, [pc, #-3695]	; fffff255 <_end+0xcfffd35d>
  c0:	5f746978 	svcpl	0x00746978
  c4:	73677261 	cmnvc	r7, #268435462	; 0x10000006
  c8:	6f635f00 	svcvs	0x00635f00
  cc:	65696b6f 	strbvs	r6, [r9, #-2927]!	; 0xfffff491
  d0:	735f5f00 	cmpvc	pc, #0, 30
  d4:	65756c67 	ldrbvs	r6, [r5, #-3175]!	; 0xfffff399
  d8:	6c665f00 	stclvs	15, cr5, [r6], #-0
  dc:	00736761 	rsbseq	r6, r3, r1, ror #14
  e0:	5f73695f 	svcpl	0x0073695f
  e4:	00617863 	rsbeq	r7, r1, r3, ror #16
  e8:	6474735f 	ldrbtvs	r7, [r4], #-863	; 0xfffffca1
  ec:	5f006e69 	svcpl	0x00006e69
  f0:	736b6c62 	cmnvc	fp, #25088	; 0x6200
  f4:	00657a69 	rsbeq	r7, r5, r9, ror #20
  f8:	7476635f 	ldrbtvc	r6, [r6], #-863	; 0xfffffca1
  fc:	00667562 	rsbeq	r7, r6, r2, ror #10
 100:	66666f5f 	uqsaxvs	r6, r6, pc	; <UNPREDICTABLE>
 104:	00746573 	rsbseq	r6, r4, r3, ror r5
 108:	73626d5f 	cmnvc	r2, #6080	; 0x17c0
 10c:	776f7472 			; <UNDEFINED> instruction: 0x776f7472
 110:	735f7363 	cmpvc	pc, #-1946157055	; 0x8c000001
 114:	65746174 	ldrbvs	r6, [r4, #-372]!	; 0xfffffe8c
 118:	626d5f00 	rsbvs	r5, sp, #0, 30
 11c:	6e656c72 	mcrvs	12, 3, r6, cr5, cr2, {3}
 120:	6174735f 	cmnvs	r4, pc, asr r3
 124:	5f006574 	svcpl	0x00006574
 128:	72616e66 	rsbvc	r6, r1, #1632	; 0x660
 12c:	5f007367 	svcpl	0x00007367
 130:	00736e66 	rsbseq	r6, r3, r6, ror #28
 134:	6769735f 			; <UNDEFINED> instruction: 0x6769735f
 138:	665f006e 	ldrbvs	r0, [pc], -lr, rrx
 13c:	6b636f6c 	blvs	18dbef4 <__code_start-0x2e72410c>
 140:	5f00745f 	svcpl	0x0000745f
 144:	65647473 	strbvs	r7, [r4, #-1139]!	; 0xfffffb8d
 148:	5f007272 	svcpl	0x00007272
 14c:	69676942 	stmdbvs	r7!, {r1, r6, r8, fp, sp, lr}^
 150:	5f00746e 	svcpl	0x0000746e
 154:	6d6d6167 	stfvse	f6, [sp, #-412]!	; 0xfffffe64
 158:	69735f61 	ldmdbvs	r3!, {r0, r5, r6, r8, r9, sl, fp, ip, lr}^
 15c:	61676e67 	cmnvs	r7, r7, ror #28
 160:	725f006d 	subsvc	r0, pc, #109	; 0x6d
 164:	00646165 	rsbeq	r6, r4, r5, ror #2
 168:	7365725f 	cmnvc	r5, #-268435451	; 0xf0000005
 16c:	5f746c75 	svcpl	0x00746c75
 170:	5f5f006b 	svcpl	0x005f006b
 174:	5f006d74 	svcpl	0x00006d74
 178:	6863775f 	stmdavs	r3!, {r0, r1, r2, r3, r4, r6, r8, r9, sl, ip, sp, lr}^
 17c:	735f0062 	cmpvc	pc, #98	; 0x62
 180:	756f6474 	strbvc	r6, [pc, #-1140]!	; fffffd14 <_end+0xcfffde1c>
 184:	635f0074 	cmpvs	pc, #116	; 0x74
 188:	656c7476 	strbvs	r7, [ip, #-1142]!	; 0xfffffb8a
 18c:	665f006e 	ldrbvs	r0, [pc], -lr, rrx
 190:	00656c69 	rsbeq	r6, r5, r9, ror #24
 194:	6f696e5f 	svcvs	0x00696e5f
 198:	73007362 	movwvc	r7, #866	; 0x362
 19c:	74726f68 	ldrbtvc	r6, [r2], #-3944	; 0xfffff098
 1a0:	736e7520 	cmnvc	lr, #32, 10	; 0x8000000
 1a4:	656e6769 	strbvs	r6, [lr, #-1897]!	; 0xfffff897
 1a8:	6e692064 	cdpvs	0, 6, cr2, cr9, cr4, {3}
 1ac:	615f0074 	cmpvs	pc, r4, ror r0	; <UNPREDICTABLE>
 1b0:	69786574 	ldmdbvs	r8!, {r2, r4, r5, r6, r8, sl, sp, lr}^
 1b4:	5f003074 	svcpl	0x00003074
 1b8:	6e676973 			; <UNDEFINED> instruction: 0x6e676973
 1bc:	625f6c61 	subsvs	r6, pc, #24832	; 0x6100
 1c0:	5f006675 	svcpl	0x00006675
 1c4:	74637361 	strbtvc	r7, [r3], #-865	; 0xfffffc9f
 1c8:	5f656d69 	svcpl	0x00656d69
 1cc:	00667562 	rsbeq	r7, r6, r2, ror #10
 1d0:	6c727473 	cfldrdvs	mvd7, [r2], #-460	; 0xfffffe34
 1d4:	5f006e65 	svcpl	0x00006e65
 1d8:	75736572 	ldrbvc	r6, [r3, #-1394]!	; 0xfffffa8e
 1dc:	5f00746c 	svcpl	0x0000746c
 1e0:	6863775f 	stmdavs	r3!, {r0, r1, r2, r3, r4, r6, r8, r9, sl, ip, sp, lr}^
 1e4:	6e697700 	cdpvs	7, 6, cr7, cr9, cr0, {0}
 1e8:	00745f74 	rsbseq	r5, r4, r4, ror pc
 1ec:	6975622f 	ldmdbvs	r5!, {r0, r1, r2, r3, r5, r9, sp, lr}^
 1f0:	6e2f646c 	cdpvs	4, 2, cr6, cr15, cr12, {3}
 1f4:	696c7765 	stmdbvs	ip!, {r0, r2, r5, r6, r8, r9, sl, ip, sp, lr}^
 1f8:	6f6a2d62 	svcvs	0x006a2d62
 1fc:	31577833 	cmpcc	r7, r3, lsr r8
 200:	77656e2f 	strbvc	r6, [r5, -pc, lsr #28]!
 204:	2d62696c 			; <UNDEFINED> instruction: 0x2d62696c
 208:	2e342e32 	mrccs	14, 1, r2, cr4, cr2, {1}
 20c:	30322e30 	eorscc	r2, r2, r0, lsr lr
 210:	35303631 	ldrcc	r3, [r0, #-1585]!	; 0xfffff9cf
 214:	622f3732 	eorvs	r3, pc, #13107200	; 0xc80000
 218:	646c6975 	strbtvs	r6, [ip], #-2421	; 0xfffff68b
 21c:	6d72612f 	ldfvse	f6, [r2, #-188]!	; 0xffffff44
 220:	6e6f6e2d 	cdpvs	14, 6, cr6, cr15, cr13, {1}
 224:	61652d65 	cmnvs	r5, r5, ror #26
 228:	6e2f6962 	vnmulvs.f16	s12, s30, s5	; <UNPREDICTABLE>
 22c:	696c7765 	stmdbvs	ip!, {r0, r2, r5, r6, r8, r9, sl, ip, sp, lr}^
 230:	696c2f62 	stmdbvs	ip!, {r1, r5, r6, r8, r9, sl, fp, sp}^
 234:	6d2f6362 	stcvs	3, cr6, [pc, #-392]!	; b4 <__code_start-0x2fffff4c>
 238:	69686361 	stmdbvs	r8!, {r0, r5, r6, r8, r9, sp, lr}^
 23c:	612f656e 			; <UNDEFINED> instruction: 0x612f656e
 240:	5f006d72 	svcpl	0x00006d72
 244:	6b636f6c 	blvs	18dbffc <__code_start-0x2e724004>
 248:	6c665f00 	stclvs	15, cr5, [r6], #-0
 24c:	32736761 	rsbscc	r6, r3, #25427968	; 0x1840000
 250:	554e4700 	strbpl	r4, [lr, #-1792]	; 0xfffff900
 254:	31314320 	teqcc	r1, r0, lsr #6
 258:	332e3620 			; <UNDEFINED> instruction: 0x332e3620
 25c:	3220312e 	eorcc	r3, r0, #-2147483637	; 0x8000000b
 260:	30373130 	eorscc	r3, r7, r0, lsr r1
 264:	20303236 	eorscs	r3, r0, r6, lsr r2
 268:	2d20672d 	stccs	7, cr6, [r0, #-180]!	; 0xffffff4c
 26c:	2d20324f 	sfmcs	f3, 4, [r0, #-316]!	; 0xfffffec4
 270:	2d6f6e66 	stclcs	14, cr6, [pc, #-408]!	; e0 <__code_start-0x2fffff20>
 274:	6c697562 	cfstr64vs	mvdx7, [r9], #-392	; 0xfffffe78
 278:	006e6974 	rsbeq	r6, lr, r4, ror r9
 27c:	6972775f 	ldmdbvs	r2!, {r0, r1, r2, r3, r4, r6, r8, r9, sl, ip, sp, lr}^
 280:	5f006574 	svcpl	0x00006574
 284:	5f6d745f 	svcpl	0x006d745f
 288:	72616579 	rsbvc	r6, r1, #507510784	; 0x1e400000
 28c:	7a697300 	bvc	1a5ce94 <__code_start-0x2e5a316c>
 290:	70797465 	rsbsvc	r7, r9, r5, ror #8
 294:	6f6c0065 	svcvs	0x006c0065
 298:	6420676e 	strtvs	r6, [r0], #-1902	; 0xfffff892
 29c:	6c62756f 	cfstr64vs	mvdx7, [r2], #-444	; 0xfffffe44
 2a0:	6e5f0065 	cdpvs	0, 5, cr0, cr15, cr5, {3}
 2a4:	66747865 	ldrbtvs	r7, [r4], -r5, ror #16
 2a8:	2f2e2e00 	svccs	0x002e2e00
 2ac:	2e2f2e2e 	cdpcs	14, 2, cr2, cr15, cr14, {1}
 2b0:	2e2e2f2e 	cdpcs	15, 2, cr2, cr14, cr14, {1}
 2b4:	2f2e2e2f 	svccs	0x002e2e2f
 2b8:	6e2f2e2e 	cdpvs	14, 2, cr2, cr15, cr14, {1}
 2bc:	696c7765 	stmdbvs	ip!, {r0, r2, r5, r6, r8, r9, sl, ip, sp, lr}^
 2c0:	696c2f62 	stmdbvs	ip!, {r1, r5, r6, r8, r9, sl, fp, sp}^
 2c4:	6d2f6362 	stcvs	3, cr6, [pc, #-392]!	; 144 <__code_start-0x2ffffebc>
 2c8:	69686361 	stmdbvs	r8!, {r0, r5, r6, r8, r9, sp, lr}^
 2cc:	612f656e 			; <UNDEFINED> instruction: 0x612f656e
 2d0:	732f6d72 			; <UNDEFINED> instruction: 0x732f6d72
 2d4:	656c7274 	strbvs	r7, [ip, #-628]!	; 0xfffffd8c
 2d8:	74732d6e 	ldrbtvc	r2, [r3], #-3438	; 0xfffff292
 2dc:	632e6275 			; <UNDEFINED> instruction: 0x632e6275
 2e0:	745f5f00 	ldrbvc	r5, [pc], #-3840	; 2e8 <__code_start-0x2ffffd18>
 2e4:	6f6d5f6d 	svcvs	0x006d5f6d
 2e8:	615f006e 	cmpvs	pc, lr, rrx
 2ec:	69786574 	ldmdbvs	r8!, {r2, r4, r5, r6, r8, sl, sp, lr}^
 2f0:	5f5f0074 	svcpl	0x005f0074
 2f4:	64696473 	strbtvs	r6, [r9], #-1139	; 0xfffffb8d
 2f8:	74696e69 	strbtvc	r6, [r9], #-3689	; 0xfffff197
 2fc:	666f5f00 	strbtvs	r5, [pc], -r0, lsl #30
 300:	00745f66 	rsbseq	r5, r4, r6, ror #30
 304:	6572665f 	ldrbvs	r6, [r2, #-1631]!	; 0xfffff9a1
 308:	73696c65 	cmnvc	r9, #25856	; 0x6500
 30c:	4c5f0074 	mrrcmi	0, 7, r0, pc, cr4	; <UNPREDICTABLE>
 310:	5f4b434f 	svcpl	0x004b434f
 314:	55434552 	strbpl	r4, [r3, #-1362]	; 0xfffffaae
 318:	56495352 			; <UNDEFINED> instruction: 0x56495352
 31c:	00545f45 	subseq	r5, r4, r5, asr #30
 320:	69736e75 	ldmdbvs	r3!, {r0, r2, r4, r5, r6, r9, sl, fp, sp, lr}^
 324:	64656e67 	strbtvs	r6, [r5], #-3687	; 0xfffff199
 328:	61686320 	cmnvs	r8, r0, lsr #6
 32c:	6e5f0072 	mrcvs	0, 2, r0, cr15, cr2, {3}
 330:	5f007765 	svcpl	0x00007765
 334:	72655f68 	rsbvc	r5, r5, #104, 30	; 0x1a0
 338:	006f6e72 	rsbeq	r6, pc, r2, ror lr	; <UNPREDICTABLE>
 33c:	726f6873 	rsbvc	r6, pc, #7536640	; 0x730000
 340:	6e692074 	mcrvs	0, 3, r2, cr9, cr4, {3}
 344:	5f5f0074 	svcpl	0x005f0074
 348:	795f6d74 	ldmdbvc	pc, {r2, r4, r5, r6, r8, sl, fp, sp, lr}^	; <UNPREDICTABLE>
 34c:	00796164 	rsbseq	r6, r9, r4, ror #2
 350:	62735f5f 	rsbsvs	r5, r3, #380	; 0x17c
 354:	5f006675 	svcpl	0x00006675
 358:	73626f69 	cmnvc	r2, #420	; 0x1a4
 35c:	465f5f00 	ldrbmi	r5, [pc], -r0, lsl #30
 360:	00454c49 	subeq	r4, r5, r9, asr #24
 364:	73626d5f 	cmnvc	r2, #6080	; 0x17c0
 368:	65746174 	ldrbvs	r6, [r4, #-372]!	; 0xfffffe8c
 36c:	5f00745f 	svcpl	0x0000745f
 370:	4946735f 	stmdbmi	r6, {r0, r1, r2, r3, r4, r6, r8, r9, ip, sp, lr}^
 374:	5f00454c 	svcpl	0x0000454c
 378:	7473626d 	ldrbtvc	r6, [r3], #-621	; 0xfffffd93
 37c:	00657461 	rsbeq	r7, r5, r1, ror #8
 380:	6e61725f 	mcrvs	2, 3, r7, cr1, cr15, {2}
 384:	656e5f64 	strbvs	r5, [lr, #-3940]!	; 0xfffff09c
 388:	5f007478 	svcpl	0x00007478
 38c:	656c626d 	strbvs	r6, [ip, #-621]!	; 0xfffffd93
 390:	74735f6e 	ldrbtvc	r5, [r3], #-3950	; 0xfffff092
 394:	00657461 	rsbeq	r7, r5, r1, ror #8
 398:	636e695f 	cmnvs	lr, #1556480	; 0x17c000
 39c:	6e695f00 	cdpvs	15, 6, cr5, cr9, cr0, {0}
 3a0:	635f0064 	cmpvs	pc, #100	; 0x64
 3a4:	65727275 	ldrbvs	r7, [r2, #-629]!	; 0xfffffd8b
 3a8:	6c5f746e 	cfldrdvs	mvd7, [pc], {110}	; 0x6e
 3ac:	6c61636f 	stclvs	3, cr6, [r1], #-444	; 0xfffffe44
 3b0:	5f5f0065 	svcpl	0x005f0065
 3b4:	61656c63 	cmnvs	r5, r3, ror #24
 3b8:	0070756e 	rsbseq	r7, r0, lr, ror #10
 3bc:	78616d5f 	stmdavc	r1!, {r0, r1, r2, r3, r4, r6, r8, sl, fp, sp, lr}^
 3c0:	00736477 	rsbseq	r6, r3, r7, ror r4
 3c4:	6565725f 	strbvs	r7, [r5, #-607]!	; 0xfffffda1
 3c8:	5f00746e 	svcpl	0x0000746e
 3cc:	64656573 	strbtvs	r6, [r5], #-1395	; 0xfffffa8d
 3d0:	635f5f00 	cmpvs	pc, #0, 30
 3d4:	746e756f 	strbtvc	r7, [lr], #-1391	; 0xfffffa91
 3d8:	765f5f00 	ldrbvc	r5, [pc], -r0, lsl #30
 3dc:	65756c61 	ldrbvs	r6, [r5, #-3169]!	; 0xfffff39f
 3e0:	65735f00 	ldrbvs	r5, [r3, #-3840]!	; 0xfffff100
 3e4:	5f006b65 	svcpl	0x00006b65
 3e8:	736f7066 	cmnvc	pc, #102	; 0x66
 3ec:	5f00745f 	svcpl	0x0000745f
 3f0:	5f6d745f 	svcpl	0x006d745f
 3f4:	006e696d 	rsbeq	r6, lr, sp, ror #18
 3f8:	6c756d5f 	ldclvs	13, cr6, [r5], #-380	; 0xfffffe84
 3fc:	735f0074 	cmpvc	pc, #116	; 0x74
 400:	6f747274 	svcvs	0x00747274
 404:	616c5f6b 	cmnvs	ip, fp, ror #30
 408:	5f007473 	svcpl	0x00007473
 40c:	79746e66 	ldmdbvc	r4!, {r1, r2, r5, r6, r9, sl, fp, sp, lr}^
 410:	00736570 	rsbseq	r6, r3, r0, ror r5
 414:	6464615f 	strbtvs	r6, [r4], #-351	; 0xfffffea1
 418:	555f5f00 	ldrbpl	r5, [pc, #-3840]	; fffff520 <_end+0xcfffd628>
 41c:	676e6f4c 	strbvs	r6, [lr, -ip, asr #30]!
 420:	65675f00 	strbvs	r5, [r7, #-3840]!	; 0xfffff100
 424:	74616474 	strbtvc	r6, [r1], #-1140	; 0xfffffb8c
 428:	72655f65 	rsbvc	r5, r5, #404	; 0x194
 42c:	675f0072 			; <UNDEFINED> instruction: 0x675f0072
 430:	61626f6c 	cmnvs	r2, ip, ror #30
 434:	6d695f6c 	stclvs	15, cr5, [r9, #-432]!	; 0xfffffe50
 438:	65727570 	ldrbvs	r7, [r2, #-1392]!	; 0xfffffa90
 43c:	7274705f 	rsbsvc	r7, r4, #95	; 0x5f
 440:	75635f00 	strbvc	r5, [r3, #-3840]!	; 0xfffff100
 444:	6e657272 	mcrvs	2, 3, r7, cr5, cr2, {3}
 448:	61635f74 	smcvs	13812	; 0x35f4
 44c:	6f676574 	svcvs	0x00676574
 450:	5f007972 	svcpl	0x00007972
 454:	73756e75 	cmnvc	r5, #1872	; 0x750
 458:	725f6465 	subsvc	r6, pc, #1694498816	; 0x65000000
 45c:	00646e61 	rsbeq	r6, r4, r1, ror #28
 460:	7364775f 	cmnvc	r4, #24903680	; 0x17c0000
 464:	745f5f00 	ldrbvc	r5, [pc], #-3840	; 46c <__code_start-0x2ffffb94>
 468:	64775f6d 	ldrbtvs	r5, [r7], #-3949	; 0xfffff093
 46c:	5f007961 	svcpl	0x00007961
 470:	65756c67 	ldrbvs	r6, [r5, #-3175]!	; 0xfffff399
 474:	6d6e5f00 	stclvs	15, cr5, [lr, #-0]
 478:	6f6c6c61 	svcvs	0x006c6c61
 47c:	6c5f0063 	mrrcvs	0, 6, r0, pc, cr3	; <UNPREDICTABLE>
 480:	5f613436 	svcpl	0x00613436
 484:	00667562 	rsbeq	r7, r6, r2, ror #10
 488:	6769735f 			; <UNDEFINED> instruction: 0x6769735f
 48c:	6e75665f 	mrcvs	6, 3, r6, cr5, cr15, {2}
 490:	6e5f0063 	cdpvs	0, 5, cr0, cr15, cr3, {3}
 494:	00667562 	rsbeq	r7, r6, r2, ror #10
 498:	756e755f 	strbvc	r7, [lr, #-1375]!	; 0xfffffaa1
 49c:	00646573 	rsbeq	r6, r4, r3, ror r5
 4a0:	6d745f5f 	ldclvs	15, cr5, [r4, #-380]!	; 0xfffffe84
 4a4:	6473695f 	ldrbtvs	r6, [r3], #-2399	; 0xfffff6a1
 4a8:	5f007473 	svcpl	0x00007473
 4ac:	61636f6c 	cmnvs	r3, ip, ror #30
 4b0:	6d69746c 	cfstrdvs	mvd7, [r9, #-432]!	; 0xfffffe50
 4b4:	75625f65 	strbvc	r5, [r2, #-3941]!	; 0xfffff09b
 4b8:	635f0066 	cmpvs	pc, #102	; 0x66
 4bc:	65736f6c 	ldrbvs	r6, [r3, #-3948]!	; 0xfffff094
 4c0:	34725f00 	ldrbtcc	r5, [r2], #-3840	; 0xfffff100
 4c4:	6d5f0038 	ldclvs	0, cr0, [pc, #-224]	; 3ec <__code_start-0x2ffffc14>
 4c8:	776f7462 	strbvc	r7, [pc, -r2, ror #8]!
 4cc:	74735f63 	ldrbtvc	r5, [r3], #-3939	; 0xfffff09d
 4d0:	00657461 	rsbeq	r7, r5, r1, ror #8
 4d4:	7335705f 	teqvc	r5, #95	; 0x5f
 4d8:	745f5f00 	ldrbvc	r5, [pc], #-3840	; 4e0 <__code_start-0x2ffffb20>
 4dc:	646d5f6d 	strbtvs	r5, [sp], #-3949	; 0xfffff093
 4e0:	5f007961 	svcpl	0x00007961
 4e4:	74727473 	ldrbtvc	r7, [r2], #-1139	; 0xfffffb8d
 4e8:	725f6c6f 	subsvc	r6, pc, #28416	; 0x6f00
 4ec:	75622f00 	strbvc	r2, [r2, #-3840]!	; 0xfffff100
 4f0:	2f646c69 	svccs	0x00646c69
 4f4:	6c77656e 	cfldr64vs	mvdx6, [r7], #-440	; 0xfffffe48
 4f8:	6a2d6269 	bvs	b58ea4 <__code_start-0x2f4a715c>
 4fc:	5778336f 	ldrbpl	r3, [r8, -pc, ror #6]!
 500:	656e2f31 	strbvs	r2, [lr, #-3889]!	; 0xfffff0cf
 504:	62696c77 	rsbvs	r6, r9, #30464	; 0x7700
 508:	342e322d 	strtcc	r3, [lr], #-557	; 0xfffffdd3
 50c:	322e302e 	eorcc	r3, lr, #46	; 0x2e
 510:	30363130 	eorscc	r3, r6, r0, lsr r1
 514:	2f373235 	svccs	0x00373235
 518:	6c697562 	cfstr64vs	mvdx7, [r9], #-392	; 0xfffffe78
 51c:	72612f64 	rsbvc	r2, r1, #100, 30	; 0x190
 520:	6f6e2d6d 	svcvs	0x006e2d6d
 524:	652d656e 	strvs	r6, [sp, #-1390]!	; 0xfffffa92
 528:	2f696261 	svccs	0x00696261
 52c:	6c77656e 	cfldr64vs	mvdx6, [r7], #-440	; 0xfffffe48
 530:	6c2f6269 	sfmvs	f6, 4, [pc], #-420	; 394 <__code_start-0x2ffffc6c>
 534:	2f636269 	svccs	0x00636269
 538:	6c647473 	cfstrdvs	mvd7, [r4], #-460	; 0xfffffe34
 53c:	5f006269 	svcpl	0x00006269
 540:	7974635f 	ldmdbvc	r4!, {r0, r1, r2, r3, r4, r6, r8, r9, sp, lr}^
 544:	705f6570 	subsvc	r6, pc, r0, ror r5	; <UNPREDICTABLE>
 548:	5f5f7274 	svcpl	0x005f7274
 54c:	72747300 	rsbsvc	r7, r4, #0, 6
 550:	006c6f74 	rsbeq	r6, ip, r4, ror pc
 554:	7379735f 	cmnvc	r9, #2080374785	; 0x7c000001
 558:	7272655f 	rsbsvc	r6, r2, #398458880	; 0x17c00000
 55c:	7473696c 	ldrbtvc	r6, [r3], #-2412	; 0xfffff694
 560:	646e6500 	strbtvs	r6, [lr], #-1280	; 0xfffffb00
 564:	00727470 	rsbseq	r7, r2, r0, ror r4
 568:	72747072 	rsbsvc	r7, r4, #114	; 0x72
 56c:	62757300 	rsbsvs	r7, r5, #0, 6
 570:	6174706f 	cmnvs	r4, pc, rrx
 574:	6e006772 	mcrvs	7, 0, r6, cr0, cr2, {3}
 578:	00727470 	rsbseq	r7, r2, r0, ror r4
 57c:	2e2f2e2e 	cdpcs	14, 2, cr2, cr15, cr14, {1}
 580:	2e2e2f2e 	cdpcs	15, 2, cr2, cr14, cr14, {1}
 584:	2f2e2e2f 	svccs	0x002e2e2f
 588:	6e2f2e2e 	cdpvs	14, 2, cr2, cr15, cr14, {1}
 58c:	696c7765 	stmdbvs	ip!, {r0, r2, r5, r6, r8, r9, sl, ip, sp, lr}^
 590:	696c2f62 	stmdbvs	ip!, {r1, r5, r6, r8, r9, sl, fp, sp}^
 594:	732f6362 			; <UNDEFINED> instruction: 0x732f6362
 598:	696c6474 	stmdbvs	ip!, {r2, r4, r5, r6, sl, sp, lr}^
 59c:	74732f62 	ldrbtvc	r2, [r3], #-3938	; 0xfffff09e
 5a0:	6c6f7472 	cfstrdvs	mvd7, [pc], #-456	; 3e0 <__code_start-0x2ffffc20>
 5a4:	5f00632e 	svcpl	0x0000632e
 5a8:	5f737973 	svcpl	0x00737973
 5ac:	7272656e 	rsbsvc	r6, r2, #461373440	; 0x1b800000
 5b0:	74635f00 	strbtvc	r5, [r3], #-3840	; 0xfffff100
 5b4:	5f657079 	svcpl	0x00657079
 5b8:	74756300 	ldrbtvc	r6, [r5], #-768	; 0xfffffd00
 5bc:	006d696c 	rsbeq	r6, sp, ip, ror #18
 5c0:	6f747563 	svcvs	0x00747563
 5c4:	2e006666 	cfmadd32cs	mvax3, mvfx6, mvfx0, mvfx6
 5c8:	2e2e2f2e 	cdpcs	15, 2, cr2, cr14, cr14, {1}
 5cc:	2f2e2e2f 	svccs	0x002e2e2f
 5d0:	2e2f2e2e 	cdpcs	14, 2, cr2, cr15, cr14, {1}
 5d4:	656e2f2e 	strbvs	r2, [lr, #-3886]!	; 0xfffff0d2
 5d8:	62696c77 	rsbvs	r6, r9, #30464	; 0x7700
 5dc:	62696c2f 	rsbvs	r6, r9, #12032	; 0x2f00
 5e0:	74632f63 	strbtvc	r2, [r3], #-3939	; 0xfffff09d
 5e4:	2f657079 	svccs	0x00657079
 5e8:	70797463 	rsbsvc	r7, r9, r3, ror #8
 5ec:	632e5f65 			; <UNDEFINED> instruction: 0x632e5f65
 5f0:	75622f00 	strbvc	r2, [r2, #-3840]!	; 0xfffff100
 5f4:	2f646c69 	svccs	0x00646c69
 5f8:	6c77656e 	cfldr64vs	mvdx6, [r7], #-440	; 0xfffffe48
 5fc:	6a2d6269 	bvs	b58fa8 <__code_start-0x2f4a7058>
 600:	5778336f 	ldrbpl	r3, [r8, -pc, ror #6]!
 604:	656e2f31 	strbvs	r2, [lr, #-3889]!	; 0xfffff0cf
 608:	62696c77 	rsbvs	r6, r9, #30464	; 0x7700
 60c:	342e322d 	strtcc	r3, [lr], #-557	; 0xfffffdd3
 610:	322e302e 	eorcc	r3, lr, #46	; 0x2e
 614:	30363130 	eorscc	r3, r6, r0, lsr r1
 618:	2f373235 	svccs	0x00373235
 61c:	6c697562 	cfstr64vs	mvdx7, [r9], #-392	; 0xfffffe78
 620:	72612f64 	rsbvc	r2, r1, #100, 30	; 0x190
 624:	6f6e2d6d 	svcvs	0x006e2d6d
 628:	652d656e 	strvs	r6, [sp, #-1390]!	; 0xfffffa92
 62c:	2f696261 	svccs	0x00696261
 630:	6c77656e 	cfldr64vs	mvdx6, [r7], #-440	; 0xfffffe48
 634:	6c2f6269 	sfmvs	f6, 4, [pc], #-420	; 498 <__code_start-0x2ffffb68>
 638:	2f636269 	svccs	0x00636269
 63c:	70797463 	rsbsvc	r7, r9, r3, ror #8
 640:	6d690065 	stclvs	0, cr0, [r9, #-404]!	; 0xfffffe6c
 644:	65727570 	ldrbvs	r7, [r2, #-1392]!	; 0xfffffa90
 648:	7461645f 	strbtvc	r6, [r1], #-1119	; 0xfffffba1
 64c:	622f0061 	eorvs	r0, pc, #97	; 0x61
 650:	646c6975 	strbtvs	r6, [ip], #-2421	; 0xfffff68b
 654:	77656e2f 	strbvc	r6, [r5, -pc, lsr #28]!
 658:	2d62696c 			; <UNDEFINED> instruction: 0x2d62696c
 65c:	78336f6a 	ldmdavc	r3!, {r1, r3, r5, r6, r8, r9, sl, fp, sp, lr}
 660:	6e2f3157 	mcrvs	1, 1, r3, cr15, cr7, {2}
 664:	696c7765 	stmdbvs	ip!, {r0, r2, r5, r6, r8, r9, sl, ip, sp, lr}^
 668:	2e322d62 	cdpcs	13, 3, cr2, cr2, cr2, {3}
 66c:	2e302e34 	mrccs	14, 1, r2, cr0, cr4, {1}
 670:	36313032 			; <UNDEFINED> instruction: 0x36313032
 674:	37323530 			; <UNDEFINED> instruction: 0x37323530
 678:	6975622f 	ldmdbvs	r5!, {r0, r1, r2, r3, r5, r9, sp, lr}^
 67c:	612f646c 			; <UNDEFINED> instruction: 0x612f646c
 680:	6e2d6d72 	mcrvs	13, 1, r6, cr13, cr2, {3}
 684:	2d656e6f 	stclcs	14, cr6, [r5, #-444]!	; 0xfffffe44
 688:	69626165 	stmdbvs	r2!, {r0, r2, r5, r6, r8, sp, lr}^
 68c:	77656e2f 	strbvc	r6, [r5, -pc, lsr #28]!
 690:	2f62696c 	svccs	0x0062696c
 694:	6362696c 	cmnvs	r2, #108, 18	; 0x1b0000
 698:	6565722f 	strbvs	r7, [r5, #-559]!	; 0xfffffdd1
 69c:	2e00746e 	cdpcs	4, 0, cr7, cr0, cr14, {3}
 6a0:	2e2e2f2e 	cdpcs	15, 2, cr2, cr14, cr14, {1}
 6a4:	2f2e2e2f 	svccs	0x002e2e2f
 6a8:	2e2f2e2e 	cdpcs	14, 2, cr2, cr15, cr14, {1}
 6ac:	656e2f2e 	strbvs	r2, [lr, #-3886]!	; 0xfffff0d2
 6b0:	62696c77 	rsbvs	r6, r9, #30464	; 0x7700
 6b4:	62696c2f 	rsbvs	r6, r9, #12032	; 0x2f00
 6b8:	65722f63 	ldrbvs	r2, [r2, #-3939]!	; 0xfffff09d
 6bc:	2f746e65 	svccs	0x00746e65
 6c0:	75706d69 	ldrbvc	r6, [r0, #-3433]!	; 0xfffff297
 6c4:	632e6572 			; <UNDEFINED> instruction: 0x632e6572
	...

Disassembly of section .debug_frame:

00000000 <.debug_frame>:
   0:	0000000c 	andeq	r0, r0, ip
   4:	ffffffff 			; <UNDEFINED> instruction: 0xffffffff
   8:	7c020001 	stcvc	0, cr0, [r2], {1}
   c:	000d0c0e 	andeq	r0, sp, lr, lsl #24
  10:	0000000c 	andeq	r0, r0, ip
  14:	00000000 	andeq	r0, r0, r0
  18:	30001230 	andcc	r1, r0, r0, lsr r2
  1c:	00000060 	andeq	r0, r0, r0, rrx
  20:	0000000c 	andeq	r0, r0, ip
  24:	ffffffff 			; <UNDEFINED> instruction: 0xffffffff
  28:	7c020001 	stcvc	0, cr0, [r2], {1}
  2c:	000d0c0e 	andeq	r0, sp, lr, lsl #24
  30:	00000038 	andeq	r0, r0, r8, lsr r0
  34:	00000020 	andeq	r0, r0, r0, lsr #32
  38:	30001290 	mulcc	r0, r0, r2
  3c:	00000238 	andeq	r0, r0, r8, lsr r2
  40:	84240e42 	strthi	r0, [r4], #-3650	; 0xfffff1be
  44:	86088509 	strhi	r8, [r8], -r9, lsl #10
  48:	88068707 	stmdahi	r6, {r0, r1, r2, r8, r9, sl, pc}
  4c:	8a048905 	bhi	122468 <__code_start-0x2feddb98>
  50:	8e028b03 	vmlahi.f64	d8, d2, d3
  54:	380e4201 	stmdacc	lr, {r0, r9, lr}
  58:	0e0aa402 	cdpeq	4, 0, cr10, cr10, cr2, {0}
  5c:	cbce4224 	blgt	ff3908f4 <_end+0xcf38e9fc>
  60:	c7c8c9ca 	strbgt	ip, [r8, sl, asr #19]
  64:	0ec4c5c6 	cdpeq	5, 12, cr12, cr4, cr6, {6}
  68:	000b4200 	andeq	r4, fp, r0, lsl #4
  6c:	0000000c 	andeq	r0, r0, ip
  70:	00000020 	andeq	r0, r0, r0, lsr #32
  74:	300014c8 	andcc	r1, r0, r8, asr #9
  78:	0000001c 	andeq	r0, r0, ip, lsl r0
  7c:	0000000c 	andeq	r0, r0, ip
  80:	ffffffff 			; <UNDEFINED> instruction: 0xffffffff
  84:	7c010001 	stcvc	0, cr0, [r1], {1}
  88:	000d0c0e 	andeq	r0, sp, lr, lsl #24
  8c:	0000000c 	andeq	r0, r0, ip
  90:	0000007c 	andeq	r0, r0, ip, ror r0
  94:	300014e4 	andcc	r1, r0, r4, ror #9
  98:	000000f4 	strdeq	r0, [r0], -r4
