
nor_Tacc.elf:     file format elf32-littlearm


Disassembly of section .text:

00000000 <_start>:
   0:	e3a00453 	mov	r0, #1392508928	; 0x53000000
   4:	e3a01000 	mov	r1, #0
   8:	e5801000 	str	r1, [r0]
   c:	e3a00313 	mov	r0, #1275068416	; 0x4c000000
  10:	e3e01000 	mvn	r1, #0
  14:	e5801000 	str	r1, [r0]
  18:	e59f0044 	ldr	r0, [pc, #68]	; 64 <halt+0x4>
  1c:	e3a01005 	mov	r1, #5
  20:	e5801000 	str	r1, [r0]
  24:	ee110f10 	mrc	15, 0, r0, cr1, cr0, {0}
  28:	e3800103 	orr	r0, r0, #-1073741824	; 0xc0000000
  2c:	ee010f10 	mcr	15, 0, r0, cr1, cr0, {0}
  30:	e59f0030 	ldr	r0, [pc, #48]	; 68 <halt+0x8>
  34:	e59f1030 	ldr	r1, [pc, #48]	; 6c <halt+0xc>
  38:	e5801000 	str	r1, [r0]
  3c:	e3a01000 	mov	r1, #0
  40:	e5910000 	ldr	r0, [r1]
  44:	e5811000 	str	r1, [r1]
  48:	e5912000 	ldr	r2, [r1]
  4c:	e1510002 	cmp	r1, r2
  50:	e59fd018 	ldr	sp, [pc, #24]	; 70 <halt+0x10>
  54:	03a0da01 	moveq	sp, #4096	; 0x1000
  58:	05810000 	streq	r0, [r1]
  5c:	eb000004 	bl	74 <main>

00000060 <halt>:
  60:	eafffffe 	b	60 <halt>
  64:	4c000014 	stcmi	0, cr0, [r0], {20}
  68:	4c000004 	stcmi	0, cr0, [r0], {4}
  6c:	0005c011 	andeq	ip, r5, r1, lsl r0
  70:	40001000 	andmi	r1, r0, r0

00000074 <main>:
  74:	e92d4800 	push	{fp, lr}
  78:	e28db004 	add	fp, sp, #4
  7c:	e24dd008 	sub	sp, sp, #8
  80:	eb000018 	bl	e8 <uart0_init>
  84:	e59f004c 	ldr	r0, [pc, #76]	; d8 <main+0x64>
  88:	eb00006a 	bl	238 <put_s>
  8c:	eb000058 	bl	1f4 <get_char>
  90:	e1a03000 	mov	r3, r0
  94:	e54b3005 	strb	r3, [fp, #-5]
  98:	e55b3005 	ldrb	r3, [fp, #-5]
  9c:	e2433030 	sub	r3, r3, #48	; 0x30
  a0:	e1a01003 	mov	r1, r3
  a4:	e59f0030 	ldr	r0, [pc, #48]	; dc <main+0x68>
  a8:	eb00019d 	bl	724 <my_printf>
  ac:	e55b3005 	ldrb	r3, [fp, #-5]
  b0:	e2433030 	sub	r3, r3, #48	; 0x30
  b4:	e1a00003 	mov	r0, r3
  b8:	eb0001f4 	bl	890 <nor_Tacc_init>
  bc:	e59f301c 	ldr	r3, [pc, #28]	; e0 <main+0x6c>
  c0:	e5933000 	ldr	r3, [r3]
  c4:	e1a01003 	mov	r1, r3
  c8:	e59f0014 	ldr	r0, [pc, #20]	; e4 <main+0x70>
  cc:	eb000194 	bl	724 <my_printf>
  d0:	eb000211 	bl	91c <led_test>
  d4:	eaffffea 	b	84 <main+0x10>
  d8:	00000af0 	strdeq	r0, [r0], -r0	; <UNPREDICTABLE>
  dc:	00000b10 	andeq	r0, r0, r0, lsl fp
  e0:	48000004 	stmdami	r0, {r2}
  e4:	00000b18 	andeq	r0, r0, r8, lsl fp

000000e8 <uart0_init>:
  e8:	e52db004 	push	{fp}		; (str fp, [sp, #-4]!)
  ec:	e28db000 	add	fp, sp, #0
  f0:	e59f20a0 	ldr	r2, [pc, #160]	; 198 <uart0_init+0xb0>
  f4:	e59f309c 	ldr	r3, [pc, #156]	; 198 <uart0_init+0xb0>
  f8:	e5933000 	ldr	r3, [r3]
  fc:	e3c330f0 	bic	r3, r3, #240	; 0xf0
 100:	e5823000 	str	r3, [r2]
 104:	e59f208c 	ldr	r2, [pc, #140]	; 198 <uart0_init+0xb0>
 108:	e59f3088 	ldr	r3, [pc, #136]	; 198 <uart0_init+0xb0>
 10c:	e5933000 	ldr	r3, [r3]
 110:	e38330a0 	orr	r3, r3, #160	; 0xa0
 114:	e5823000 	str	r3, [r2]
 118:	e59f207c 	ldr	r2, [pc, #124]	; 19c <uart0_init+0xb4>
 11c:	e59f3078 	ldr	r3, [pc, #120]	; 19c <uart0_init+0xb4>
 120:	e5933000 	ldr	r3, [r3]
 124:	e3c3300c 	bic	r3, r3, #12
 128:	e5823000 	str	r3, [r2]
 12c:	e59f306c 	ldr	r3, [pc, #108]	; 1a0 <uart0_init+0xb8>
 130:	e3a0201a 	mov	r2, #26
 134:	e5832000 	str	r2, [r3]
 138:	e3a02245 	mov	r2, #1342177284	; 0x50000004
 13c:	e3a03245 	mov	r3, #1342177284	; 0x50000004
 140:	e5933000 	ldr	r3, [r3]
 144:	e3c33b03 	bic	r3, r3, #3072	; 0xc00
 148:	e5823000 	str	r3, [r2]
 14c:	e3a02245 	mov	r2, #1342177284	; 0x50000004
 150:	e3a03245 	mov	r3, #1342177284	; 0x50000004
 154:	e5933000 	ldr	r3, [r3]
 158:	e3833004 	orr	r3, r3, #4
 15c:	e5823000 	str	r3, [r2]
 160:	e3a02245 	mov	r2, #1342177284	; 0x50000004
 164:	e3a03245 	mov	r3, #1342177284	; 0x50000004
 168:	e5933000 	ldr	r3, [r3]
 16c:	e3833001 	orr	r3, r3, #1
 170:	e5823000 	str	r3, [r2]
 174:	e3a02205 	mov	r2, #1342177280	; 0x50000000
 178:	e3a03205 	mov	r3, #1342177280	; 0x50000000
 17c:	e5933000 	ldr	r3, [r3]
 180:	e3833003 	orr	r3, r3, #3
 184:	e5823000 	str	r3, [r2]
 188:	e1a00000 	nop			; (mov r0, r0)
 18c:	e28bd000 	add	sp, fp, #0
 190:	e49db004 	pop	{fp}		; (ldr fp, [sp], #4)
 194:	e12fff1e 	bx	lr
 198:	56000070 			; <UNDEFINED> instruction: 0x56000070
 19c:	56000078 			; <UNDEFINED> instruction: 0x56000078
 1a0:	50000028 	andpl	r0, r0, r8, lsr #32

000001a4 <put_char>:
 1a4:	e52db004 	push	{fp}		; (str fp, [sp, #-4]!)
 1a8:	e28db000 	add	fp, sp, #0
 1ac:	e24dd00c 	sub	sp, sp, #12
 1b0:	e50b0008 	str	r0, [fp, #-8]
 1b4:	e1a00000 	nop			; (mov r0, r0)
 1b8:	e59f302c 	ldr	r3, [pc, #44]	; 1ec <put_char+0x48>
 1bc:	e5933000 	ldr	r3, [r3]
 1c0:	e2033004 	and	r3, r3, #4
 1c4:	e3530000 	cmp	r3, #0
 1c8:	0afffffa 	beq	1b8 <put_char+0x14>
 1cc:	e59f201c 	ldr	r2, [pc, #28]	; 1f0 <put_char+0x4c>
 1d0:	e51b3008 	ldr	r3, [fp, #-8]
 1d4:	e20330ff 	and	r3, r3, #255	; 0xff
 1d8:	e5c23000 	strb	r3, [r2]
 1dc:	e1a00000 	nop			; (mov r0, r0)
 1e0:	e28bd000 	add	sp, fp, #0
 1e4:	e49db004 	pop	{fp}		; (ldr fp, [sp], #4)
 1e8:	e12fff1e 	bx	lr
 1ec:	50000010 	andpl	r0, r0, r0, lsl r0
 1f0:	50000020 	andpl	r0, r0, r0, lsr #32

000001f4 <get_char>:
 1f4:	e52db004 	push	{fp}		; (str fp, [sp, #-4]!)
 1f8:	e28db000 	add	fp, sp, #0
 1fc:	e1a00000 	nop			; (mov r0, r0)
 200:	e59f3028 	ldr	r3, [pc, #40]	; 230 <get_char+0x3c>
 204:	e5933000 	ldr	r3, [r3]
 208:	e2033001 	and	r3, r3, #1
 20c:	e3530000 	cmp	r3, #0
 210:	0afffffa 	beq	200 <get_char+0xc>
 214:	e59f3018 	ldr	r3, [pc, #24]	; 234 <get_char+0x40>
 218:	e5d33000 	ldrb	r3, [r3]
 21c:	e20330ff 	and	r3, r3, #255	; 0xff
 220:	e1a00003 	mov	r0, r3
 224:	e28bd000 	add	sp, fp, #0
 228:	e49db004 	pop	{fp}		; (ldr fp, [sp], #4)
 22c:	e12fff1e 	bx	lr
 230:	50000010 	andpl	r0, r0, r0, lsl r0
 234:	50000024 	andpl	r0, r0, r4, lsr #32

00000238 <put_s>:
 238:	e92d4800 	push	{fp, lr}
 23c:	e28db004 	add	fp, sp, #4
 240:	e24dd008 	sub	sp, sp, #8
 244:	e50b0008 	str	r0, [fp, #-8]
 248:	ea000006 	b	268 <put_s+0x30>
 24c:	e51b3008 	ldr	r3, [fp, #-8]
 250:	e5d33000 	ldrb	r3, [r3]
 254:	e1a00003 	mov	r0, r3
 258:	ebffffd1 	bl	1a4 <put_char>
 25c:	e51b3008 	ldr	r3, [fp, #-8]
 260:	e2833001 	add	r3, r3, #1
 264:	e50b3008 	str	r3, [fp, #-8]
 268:	e51b3008 	ldr	r3, [fp, #-8]
 26c:	e5d33000 	ldrb	r3, [r3]
 270:	e3530000 	cmp	r3, #0
 274:	1afffff4 	bne	24c <put_s+0x14>
 278:	e1a00000 	nop			; (mov r0, r0)
 27c:	e24bd004 	sub	sp, fp, #4
 280:	e8bd4800 	pop	{fp, lr}
 284:	e12fff1e 	bx	lr

00000288 <out_c>:
 288:	e92d4800 	push	{fp, lr}
 28c:	e28db004 	add	fp, sp, #4
 290:	e24dd008 	sub	sp, sp, #8
 294:	e50b0008 	str	r0, [fp, #-8]
 298:	e51b0008 	ldr	r0, [fp, #-8]
 29c:	ebffffc0 	bl	1a4 <put_char>
 2a0:	e3a03000 	mov	r3, #0
 2a4:	e1a00003 	mov	r0, r3
 2a8:	e24bd004 	sub	sp, fp, #4
 2ac:	e8bd4800 	pop	{fp, lr}
 2b0:	e12fff1e 	bx	lr

000002b4 <out_s>:
 2b4:	e92d4800 	push	{fp, lr}
 2b8:	e28db004 	add	fp, sp, #4
 2bc:	e24dd008 	sub	sp, sp, #8
 2c0:	e50b0008 	str	r0, [fp, #-8]
 2c4:	ea000005 	b	2e0 <out_s+0x2c>
 2c8:	e51b3008 	ldr	r3, [fp, #-8]
 2cc:	e2832001 	add	r2, r3, #1
 2d0:	e50b2008 	str	r2, [fp, #-8]
 2d4:	e5d33000 	ldrb	r3, [r3]
 2d8:	e1a00003 	mov	r0, r3
 2dc:	ebffffb0 	bl	1a4 <put_char>
 2e0:	e51b3008 	ldr	r3, [fp, #-8]
 2e4:	e5d33000 	ldrb	r3, [r3]
 2e8:	e3530000 	cmp	r3, #0
 2ec:	1afffff5 	bne	2c8 <out_s+0x14>
 2f0:	e3a03000 	mov	r3, #0
 2f4:	e1a00003 	mov	r0, r3
 2f8:	e24bd004 	sub	sp, fp, #4
 2fc:	e8bd4800 	pop	{fp, lr}
 300:	e12fff1e 	bx	lr

00000304 <out_num>:
 304:	e92d4800 	push	{fp, lr}
 308:	e28db004 	add	fp, sp, #4
 30c:	e24dd060 	sub	sp, sp, #96	; 0x60
 310:	e50b0058 	str	r0, [fp, #-88]	; 0xffffffa8
 314:	e50b105c 	str	r1, [fp, #-92]	; 0xffffffa4
 318:	e50b3064 	str	r3, [fp, #-100]	; 0xffffff9c
 31c:	e1a03002 	mov	r3, r2
 320:	e54b305d 	strb	r3, [fp, #-93]	; 0xffffffa3
 324:	e3a03000 	mov	r3, #0
 328:	e50b3008 	str	r3, [fp, #-8]
 32c:	e24b3054 	sub	r3, fp, #84	; 0x54
 330:	e2833040 	add	r3, r3, #64	; 0x40
 334:	e50b300c 	str	r3, [fp, #-12]
 338:	e3a03000 	mov	r3, #0
 33c:	e50b3010 	str	r3, [fp, #-16]
 340:	e3a03000 	mov	r3, #0
 344:	e50b3014 	str	r3, [fp, #-20]	; 0xffffffec
 348:	e51b300c 	ldr	r3, [fp, #-12]
 34c:	e2433001 	sub	r3, r3, #1
 350:	e50b300c 	str	r3, [fp, #-12]
 354:	e51b300c 	ldr	r3, [fp, #-12]
 358:	e3a02000 	mov	r2, #0
 35c:	e5c32000 	strb	r2, [r3]
 360:	e51b3058 	ldr	r3, [fp, #-88]	; 0xffffffa8
 364:	e3530000 	cmp	r3, #0
 368:	aa000003 	bge	37c <out_num+0x78>
 36c:	e51b3058 	ldr	r3, [fp, #-88]	; 0xffffffa8
 370:	e2633000 	rsb	r3, r3, #0
 374:	e50b3008 	str	r3, [fp, #-8]
 378:	ea000001 	b	384 <out_num+0x80>
 37c:	e51b3058 	ldr	r3, [fp, #-88]	; 0xffffffa8
 380:	e50b3008 	str	r3, [fp, #-8]
 384:	e51b300c 	ldr	r3, [fp, #-12]
 388:	e2433001 	sub	r3, r3, #1
 38c:	e50b300c 	str	r3, [fp, #-12]
 390:	e51b205c 	ldr	r2, [fp, #-92]	; 0xffffffa4
 394:	e51b3008 	ldr	r3, [fp, #-8]
 398:	e1a01002 	mov	r1, r2
 39c:	e1a00003 	mov	r0, r3
 3a0:	eb0001c9 	bl	acc <__aeabi_uidivmod>
 3a4:	e1a03001 	mov	r3, r1
 3a8:	e1a02003 	mov	r2, r3
 3ac:	e59f30d8 	ldr	r3, [pc, #216]	; 48c <out_num+0x188>
 3b0:	e7d32002 	ldrb	r2, [r3, r2]
 3b4:	e51b300c 	ldr	r3, [fp, #-12]
 3b8:	e5c32000 	strb	r2, [r3]
 3bc:	e51b3010 	ldr	r3, [fp, #-16]
 3c0:	e2833001 	add	r3, r3, #1
 3c4:	e50b3010 	str	r3, [fp, #-16]
 3c8:	e51b305c 	ldr	r3, [fp, #-92]	; 0xffffffa4
 3cc:	e1a01003 	mov	r1, r3
 3d0:	e51b0008 	ldr	r0, [fp, #-8]
 3d4:	eb00017f 	bl	9d8 <__aeabi_uidiv>
 3d8:	e1a03000 	mov	r3, r0
 3dc:	e50b3008 	str	r3, [fp, #-8]
 3e0:	e51b3008 	ldr	r3, [fp, #-8]
 3e4:	e3530000 	cmp	r3, #0
 3e8:	1affffe5 	bne	384 <out_num+0x80>
 3ec:	e51b3064 	ldr	r3, [fp, #-100]	; 0xffffff9c
 3f0:	e3530000 	cmp	r3, #0
 3f4:	0a000014 	beq	44c <out_num+0x148>
 3f8:	e51b2010 	ldr	r2, [fp, #-16]
 3fc:	e51b3064 	ldr	r3, [fp, #-100]	; 0xffffff9c
 400:	e1520003 	cmp	r2, r3
 404:	aa000010 	bge	44c <out_num+0x148>
 408:	e51b2064 	ldr	r2, [fp, #-100]	; 0xffffff9c
 40c:	e51b3010 	ldr	r3, [fp, #-16]
 410:	e0423003 	sub	r3, r2, r3
 414:	e50b3014 	str	r3, [fp, #-20]	; 0xffffffec
 418:	ea000008 	b	440 <out_num+0x13c>
 41c:	e51b300c 	ldr	r3, [fp, #-12]
 420:	e2433001 	sub	r3, r3, #1
 424:	e50b300c 	str	r3, [fp, #-12]
 428:	e51b300c 	ldr	r3, [fp, #-12]
 42c:	e55b205d 	ldrb	r2, [fp, #-93]	; 0xffffffa3
 430:	e5c32000 	strb	r2, [r3]
 434:	e51b3014 	ldr	r3, [fp, #-20]	; 0xffffffec
 438:	e2433001 	sub	r3, r3, #1
 43c:	e50b3014 	str	r3, [fp, #-20]	; 0xffffffec
 440:	e51b3014 	ldr	r3, [fp, #-20]	; 0xffffffec
 444:	e3530000 	cmp	r3, #0
 448:	1afffff3 	bne	41c <out_num+0x118>
 44c:	e51b3058 	ldr	r3, [fp, #-88]	; 0xffffffa8
 450:	e3530000 	cmp	r3, #0
 454:	aa000005 	bge	470 <out_num+0x16c>
 458:	e51b300c 	ldr	r3, [fp, #-12]
 45c:	e2433001 	sub	r3, r3, #1
 460:	e50b300c 	str	r3, [fp, #-12]
 464:	e51b300c 	ldr	r3, [fp, #-12]
 468:	e3a0202d 	mov	r2, #45	; 0x2d
 46c:	e5c32000 	strb	r2, [r3]
 470:	e51b000c 	ldr	r0, [fp, #-12]
 474:	ebffff8e 	bl	2b4 <out_s>
 478:	e1a03000 	mov	r3, r0
 47c:	e1a00003 	mov	r0, r3
 480:	e24bd004 	sub	sp, fp, #4
 484:	e8bd4800 	pop	{fp, lr}
 488:	e12fff1e 	bx	lr
 48c:	00000d00 	andeq	r0, r0, r0, lsl #26

00000490 <my_va_printf>:
 490:	e92d4800 	push	{fp, lr}
 494:	e28db004 	add	fp, sp, #4
 498:	e24dd010 	sub	sp, sp, #16
 49c:	e50b0010 	str	r0, [fp, #-16]
 4a0:	e50b1014 	str	r1, [fp, #-20]	; 0xffffffec
 4a4:	ea000095 	b	700 <my_va_printf+0x270>
 4a8:	e3a03020 	mov	r3, #32
 4ac:	e54b3005 	strb	r3, [fp, #-5]
 4b0:	e3a03000 	mov	r3, #0
 4b4:	e50b300c 	str	r3, [fp, #-12]
 4b8:	e51b3010 	ldr	r3, [fp, #-16]
 4bc:	e5d33000 	ldrb	r3, [r3]
 4c0:	e3530025 	cmp	r3, #37	; 0x25
 4c4:	0a000004 	beq	4dc <my_va_printf+0x4c>
 4c8:	e51b3010 	ldr	r3, [fp, #-16]
 4cc:	e5d33000 	ldrb	r3, [r3]
 4d0:	e1a00003 	mov	r0, r3
 4d4:	ebffff6b 	bl	288 <out_c>
 4d8:	ea000085 	b	6f4 <my_va_printf+0x264>
 4dc:	e51b3010 	ldr	r3, [fp, #-16]
 4e0:	e2833001 	add	r3, r3, #1
 4e4:	e50b3010 	str	r3, [fp, #-16]
 4e8:	e51b3010 	ldr	r3, [fp, #-16]
 4ec:	e5d33000 	ldrb	r3, [r3]
 4f0:	e3530030 	cmp	r3, #48	; 0x30
 4f4:	1a000014 	bne	54c <my_va_printf+0xbc>
 4f8:	e3a03030 	mov	r3, #48	; 0x30
 4fc:	e54b3005 	strb	r3, [fp, #-5]
 500:	e51b3010 	ldr	r3, [fp, #-16]
 504:	e2833001 	add	r3, r3, #1
 508:	e50b3010 	str	r3, [fp, #-16]
 50c:	ea00000e 	b	54c <my_va_printf+0xbc>
 510:	e51b200c 	ldr	r2, [fp, #-12]
 514:	e1a03002 	mov	r3, r2
 518:	e1a03103 	lsl	r3, r3, #2
 51c:	e0833002 	add	r3, r3, r2
 520:	e1a03083 	lsl	r3, r3, #1
 524:	e50b300c 	str	r3, [fp, #-12]
 528:	e51b3010 	ldr	r3, [fp, #-16]
 52c:	e5d33000 	ldrb	r3, [r3]
 530:	e2433030 	sub	r3, r3, #48	; 0x30
 534:	e51b200c 	ldr	r2, [fp, #-12]
 538:	e0823003 	add	r3, r2, r3
 53c:	e50b300c 	str	r3, [fp, #-12]
 540:	e51b3010 	ldr	r3, [fp, #-16]
 544:	e2833001 	add	r3, r3, #1
 548:	e50b3010 	str	r3, [fp, #-16]
 54c:	e51b3010 	ldr	r3, [fp, #-16]
 550:	e5d33000 	ldrb	r3, [r3]
 554:	e353002f 	cmp	r3, #47	; 0x2f
 558:	9a000003 	bls	56c <my_va_printf+0xdc>
 55c:	e51b3010 	ldr	r3, [fp, #-16]
 560:	e5d33000 	ldrb	r3, [r3]
 564:	e3530039 	cmp	r3, #57	; 0x39
 568:	9affffe8 	bls	510 <my_va_printf+0x80>
 56c:	e51b3010 	ldr	r3, [fp, #-16]
 570:	e5d33000 	ldrb	r3, [r3]
 574:	e2433063 	sub	r3, r3, #99	; 0x63
 578:	e3530015 	cmp	r3, #21
 57c:	979ff103 	ldrls	pc, [pc, r3, lsl #2]
 580:	ea000056 	b	6e0 <my_va_printf+0x250>
 584:	00000698 	muleq	r0, r8, r6
 588:	000005dc 	ldrdeq	r0, [r0], -ip
 58c:	000006e0 	andeq	r0, r0, r0, ror #13
 590:	000006e0 	andeq	r0, r0, r0, ror #13
 594:	000006e0 	andeq	r0, r0, r0, ror #13
 598:	000006e0 	andeq	r0, r0, r0, ror #13
 59c:	000006e0 	andeq	r0, r0, r0, ror #13
 5a0:	000006e0 	andeq	r0, r0, r0, ror #13
 5a4:	000006e0 	andeq	r0, r0, r0, ror #13
 5a8:	000006e0 	andeq	r0, r0, r0, ror #13
 5ac:	000006e0 	andeq	r0, r0, r0, ror #13
 5b0:	000006e0 	andeq	r0, r0, r0, ror #13
 5b4:	00000608 	andeq	r0, r0, r8, lsl #12
 5b8:	000006e0 	andeq	r0, r0, r0, ror #13
 5bc:	000006e0 	andeq	r0, r0, r0, ror #13
 5c0:	000006e0 	andeq	r0, r0, r0, ror #13
 5c4:	000006bc 			; <UNDEFINED> instruction: 0x000006bc
 5c8:	000006e0 	andeq	r0, r0, r0, ror #13
 5cc:	00000638 	andeq	r0, r0, r8, lsr r6
 5d0:	000006e0 	andeq	r0, r0, r0, ror #13
 5d4:	000006e0 	andeq	r0, r0, r0, ror #13
 5d8:	00000668 	andeq	r0, r0, r8, ror #12
 5dc:	e51b3014 	ldr	r3, [fp, #-20]	; 0xffffffec
 5e0:	e2833004 	add	r3, r3, #4
 5e4:	e50b3014 	str	r3, [fp, #-20]	; 0xffffffec
 5e8:	e51b3014 	ldr	r3, [fp, #-20]	; 0xffffffec
 5ec:	e2433004 	sub	r3, r3, #4
 5f0:	e5930000 	ldr	r0, [r3]
 5f4:	e55b2005 	ldrb	r2, [fp, #-5]
 5f8:	e51b300c 	ldr	r3, [fp, #-12]
 5fc:	e3a0100a 	mov	r1, #10
 600:	ebffff3f 	bl	304 <out_num>
 604:	ea00003a 	b	6f4 <my_va_printf+0x264>
 608:	e51b3014 	ldr	r3, [fp, #-20]	; 0xffffffec
 60c:	e2833004 	add	r3, r3, #4
 610:	e50b3014 	str	r3, [fp, #-20]	; 0xffffffec
 614:	e51b3014 	ldr	r3, [fp, #-20]	; 0xffffffec
 618:	e2433004 	sub	r3, r3, #4
 61c:	e5933000 	ldr	r3, [r3]
 620:	e1a00003 	mov	r0, r3
 624:	e55b2005 	ldrb	r2, [fp, #-5]
 628:	e51b300c 	ldr	r3, [fp, #-12]
 62c:	e3a01008 	mov	r1, #8
 630:	ebffff33 	bl	304 <out_num>
 634:	ea00002e 	b	6f4 <my_va_printf+0x264>
 638:	e51b3014 	ldr	r3, [fp, #-20]	; 0xffffffec
 63c:	e2833004 	add	r3, r3, #4
 640:	e50b3014 	str	r3, [fp, #-20]	; 0xffffffec
 644:	e51b3014 	ldr	r3, [fp, #-20]	; 0xffffffec
 648:	e2433004 	sub	r3, r3, #4
 64c:	e5933000 	ldr	r3, [r3]
 650:	e1a00003 	mov	r0, r3
 654:	e55b2005 	ldrb	r2, [fp, #-5]
 658:	e51b300c 	ldr	r3, [fp, #-12]
 65c:	e3a0100a 	mov	r1, #10
 660:	ebffff27 	bl	304 <out_num>
 664:	ea000022 	b	6f4 <my_va_printf+0x264>
 668:	e51b3014 	ldr	r3, [fp, #-20]	; 0xffffffec
 66c:	e2833004 	add	r3, r3, #4
 670:	e50b3014 	str	r3, [fp, #-20]	; 0xffffffec
 674:	e51b3014 	ldr	r3, [fp, #-20]	; 0xffffffec
 678:	e2433004 	sub	r3, r3, #4
 67c:	e5933000 	ldr	r3, [r3]
 680:	e1a00003 	mov	r0, r3
 684:	e55b2005 	ldrb	r2, [fp, #-5]
 688:	e51b300c 	ldr	r3, [fp, #-12]
 68c:	e3a01010 	mov	r1, #16
 690:	ebffff1b 	bl	304 <out_num>
 694:	ea000016 	b	6f4 <my_va_printf+0x264>
 698:	e51b3014 	ldr	r3, [fp, #-20]	; 0xffffffec
 69c:	e2833004 	add	r3, r3, #4
 6a0:	e50b3014 	str	r3, [fp, #-20]	; 0xffffffec
 6a4:	e51b3014 	ldr	r3, [fp, #-20]	; 0xffffffec
 6a8:	e2433004 	sub	r3, r3, #4
 6ac:	e5933000 	ldr	r3, [r3]
 6b0:	e1a00003 	mov	r0, r3
 6b4:	ebfffef3 	bl	288 <out_c>
 6b8:	ea00000d 	b	6f4 <my_va_printf+0x264>
 6bc:	e51b3014 	ldr	r3, [fp, #-20]	; 0xffffffec
 6c0:	e2833004 	add	r3, r3, #4
 6c4:	e50b3014 	str	r3, [fp, #-20]	; 0xffffffec
 6c8:	e51b3014 	ldr	r3, [fp, #-20]	; 0xffffffec
 6cc:	e2433004 	sub	r3, r3, #4
 6d0:	e5933000 	ldr	r3, [r3]
 6d4:	e1a00003 	mov	r0, r3
 6d8:	ebfffef5 	bl	2b4 <out_s>
 6dc:	ea000004 	b	6f4 <my_va_printf+0x264>
 6e0:	e51b3010 	ldr	r3, [fp, #-16]
 6e4:	e5d33000 	ldrb	r3, [r3]
 6e8:	e1a00003 	mov	r0, r3
 6ec:	ebfffee5 	bl	288 <out_c>
 6f0:	e1a00000 	nop			; (mov r0, r0)
 6f4:	e51b3010 	ldr	r3, [fp, #-16]
 6f8:	e2833001 	add	r3, r3, #1
 6fc:	e50b3010 	str	r3, [fp, #-16]
 700:	e51b3010 	ldr	r3, [fp, #-16]
 704:	e5d33000 	ldrb	r3, [r3]
 708:	e3530000 	cmp	r3, #0
 70c:	1affff65 	bne	4a8 <my_va_printf+0x18>
 710:	e3a03000 	mov	r3, #0
 714:	e1a00003 	mov	r0, r3
 718:	e24bd004 	sub	sp, fp, #4
 71c:	e8bd4800 	pop	{fp, lr}
 720:	e12fff1e 	bx	lr

00000724 <my_printf>:
 724:	e92d000f 	push	{r0, r1, r2, r3}
 728:	e92d4800 	push	{fp, lr}
 72c:	e28db004 	add	fp, sp, #4
 730:	e24dd008 	sub	sp, sp, #8
 734:	e28b3008 	add	r3, fp, #8
 738:	e50b3008 	str	r3, [fp, #-8]
 73c:	e59b3004 	ldr	r3, [fp, #4]
 740:	e51b1008 	ldr	r1, [fp, #-8]
 744:	e1a00003 	mov	r0, r3
 748:	ebffff50 	bl	490 <my_va_printf>
 74c:	e3a03000 	mov	r3, #0
 750:	e50b3008 	str	r3, [fp, #-8]
 754:	e3a03000 	mov	r3, #0
 758:	e1a00003 	mov	r0, r3
 75c:	e24bd004 	sub	sp, fp, #4
 760:	e8bd4800 	pop	{fp, lr}
 764:	e28dd010 	add	sp, sp, #16
 768:	e12fff1e 	bx	lr

0000076c <my_printf_test>:
 76c:	e92d4800 	push	{fp, lr}
 770:	e28db004 	add	fp, sp, #4
 774:	e59f00c4 	ldr	r0, [pc, #196]	; 840 <my_printf_test+0xd4>
 778:	ebffffe9 	bl	724 <my_printf>
 77c:	e3a02061 	mov	r2, #97	; 0x61
 780:	e3a01041 	mov	r1, #65	; 0x41
 784:	e59f00b8 	ldr	r0, [pc, #184]	; 844 <my_printf_test+0xd8>
 788:	ebffffe5 	bl	724 <my_printf>
 78c:	e59f10b4 	ldr	r1, [pc, #180]	; 848 <my_printf_test+0xdc>
 790:	e59f00b4 	ldr	r0, [pc, #180]	; 84c <my_printf_test+0xe0>
 794:	ebffffe2 	bl	724 <my_printf>
 798:	e59f10b0 	ldr	r1, [pc, #176]	; 850 <my_printf_test+0xe4>
 79c:	e59f00a8 	ldr	r0, [pc, #168]	; 84c <my_printf_test+0xe0>
 7a0:	ebffffdf 	bl	724 <my_printf>
 7a4:	e59f10a8 	ldr	r1, [pc, #168]	; 854 <my_printf_test+0xe8>
 7a8:	e59f00a8 	ldr	r0, [pc, #168]	; 858 <my_printf_test+0xec>
 7ac:	ebffffdc 	bl	724 <my_printf>
 7b0:	e59f10a4 	ldr	r1, [pc, #164]	; 85c <my_printf_test+0xf0>
 7b4:	e59f00a4 	ldr	r0, [pc, #164]	; 860 <my_printf_test+0xf4>
 7b8:	ebffffd9 	bl	724 <my_printf>
 7bc:	e59f10a0 	ldr	r1, [pc, #160]	; 864 <my_printf_test+0xf8>
 7c0:	e59f00a0 	ldr	r0, [pc, #160]	; 868 <my_printf_test+0xfc>
 7c4:	ebffffd6 	bl	724 <my_printf>
 7c8:	e59f1094 	ldr	r1, [pc, #148]	; 864 <my_printf_test+0xf8>
 7cc:	e59f0098 	ldr	r0, [pc, #152]	; 86c <my_printf_test+0x100>
 7d0:	ebffffd3 	bl	724 <my_printf>
 7d4:	e59f1094 	ldr	r1, [pc, #148]	; 870 <my_printf_test+0x104>
 7d8:	e59f0094 	ldr	r0, [pc, #148]	; 874 <my_printf_test+0x108>
 7dc:	ebffffd0 	bl	724 <my_printf>
 7e0:	e59f1088 	ldr	r1, [pc, #136]	; 870 <my_printf_test+0x104>
 7e4:	e59f008c 	ldr	r0, [pc, #140]	; 878 <my_printf_test+0x10c>
 7e8:	ebffffcd 	bl	724 <my_printf>
 7ec:	e3a01001 	mov	r1, #1
 7f0:	e59f0084 	ldr	r0, [pc, #132]	; 87c <my_printf_test+0x110>
 7f4:	ebffffca 	bl	724 <my_printf>
 7f8:	e3a01001 	mov	r1, #1
 7fc:	e59f007c 	ldr	r0, [pc, #124]	; 880 <my_printf_test+0x114>
 800:	ebffffc7 	bl	724 <my_printf>
 804:	e3a01001 	mov	r1, #1
 808:	e59f0074 	ldr	r0, [pc, #116]	; 884 <my_printf_test+0x118>
 80c:	ebffffc4 	bl	724 <my_printf>
 810:	e3a01001 	mov	r1, #1
 814:	e59f006c 	ldr	r0, [pc, #108]	; 888 <my_printf_test+0x11c>
 818:	ebffffc1 	bl	724 <my_printf>
 81c:	e3a0207b 	mov	r2, #123	; 0x7b
 820:	e3a01001 	mov	r1, #1
 824:	e59f0060 	ldr	r0, [pc, #96]	; 88c <my_printf_test+0x120>
 828:	ebffffbd 	bl	724 <my_printf>
 82c:	e3a03000 	mov	r3, #0
 830:	e1a00003 	mov	r0, r3
 834:	e24bd004 	sub	sp, fp, #4
 838:	e8bd4800 	pop	{fp, lr}
 83c:	e12fff1e 	bx	lr
 840:	00000b28 	andeq	r0, r0, r8, lsr #22
 844:	00000b54 	andeq	r0, r0, r4, asr fp
 848:	0001e240 	andeq	lr, r1, r0, asr #4
 84c:	00000b74 	andeq	r0, r0, r4, ror fp
 850:	fffe1dc0 			; <UNDEFINED> instruction: 0xfffe1dc0
 854:	55aa55aa 	strpl	r5, [sl, #1450]!	; 0x5aa
 858:	00000b90 	muleq	r0, r0, fp
 85c:	00000bac 	andeq	r0, r0, ip, lsr #23
 860:	00000bbc 			; <UNDEFINED> instruction: 0x00000bbc
 864:	00003039 	andeq	r3, r0, r9, lsr r0
 868:	00000bd8 	ldrdeq	r0, [r0], -r8
 86c:	00000be4 	andeq	r0, r0, r4, ror #23
 870:	00012345 	andeq	r2, r1, r5, asr #6
 874:	00000bf0 	strdeq	r0, [r0], -r0	; <UNPREDICTABLE>
 878:	00000c00 	andeq	r0, r0, r0, lsl #24
 87c:	00000c0c 	andeq	r0, r0, ip, lsl #24
 880:	00000c1c 	andeq	r0, r0, ip, lsl ip
 884:	00000c28 	andeq	r0, r0, r8, lsr #24
 888:	00000c34 	andeq	r0, r0, r4, lsr ip
 88c:	00000c40 	andeq	r0, r0, r0, asr #24

00000890 <nor_Tacc_init>:
 890:	e52db004 	push	{fp}		; (str fp, [sp, #-4]!)
 894:	e28db000 	add	fp, sp, #0
 898:	e24dd00c 	sub	sp, sp, #12
 89c:	e50b0008 	str	r0, [fp, #-8]
 8a0:	e59f2038 	ldr	r2, [pc, #56]	; 8e0 <nor_Tacc_init+0x50>
 8a4:	e59f3034 	ldr	r3, [pc, #52]	; 8e0 <nor_Tacc_init+0x50>
 8a8:	e5933000 	ldr	r3, [r3]
 8ac:	e3c33c07 	bic	r3, r3, #1792	; 0x700
 8b0:	e5823000 	str	r3, [r2]
 8b4:	e59f1024 	ldr	r1, [pc, #36]	; 8e0 <nor_Tacc_init+0x50>
 8b8:	e59f3020 	ldr	r3, [pc, #32]	; 8e0 <nor_Tacc_init+0x50>
 8bc:	e5933000 	ldr	r3, [r3]
 8c0:	e51b2008 	ldr	r2, [fp, #-8]
 8c4:	e1a02402 	lsl	r2, r2, #8
 8c8:	e1833002 	orr	r3, r3, r2
 8cc:	e5813000 	str	r3, [r1]
 8d0:	e1a00000 	nop			; (mov r0, r0)
 8d4:	e28bd000 	add	sp, fp, #0
 8d8:	e49db004 	pop	{fp}		; (ldr fp, [sp], #4)
 8dc:	e12fff1e 	bx	lr
 8e0:	48000004 	stmdami	r0, {r2}

000008e4 <delay>:
 8e4:	e52db004 	push	{fp}		; (str fp, [sp, #-4]!)
 8e8:	e28db000 	add	fp, sp, #0
 8ec:	e24dd00c 	sub	sp, sp, #12
 8f0:	e50b0008 	str	r0, [fp, #-8]
 8f4:	e1a00000 	nop			; (mov r0, r0)
 8f8:	e51b3008 	ldr	r3, [fp, #-8]
 8fc:	e2432001 	sub	r2, r3, #1
 900:	e50b2008 	str	r2, [fp, #-8]
 904:	e3530000 	cmp	r3, #0
 908:	1afffffa 	bne	8f8 <delay+0x14>
 90c:	e1a00000 	nop			; (mov r0, r0)
 910:	e28bd000 	add	sp, fp, #0
 914:	e49db004 	pop	{fp}		; (ldr fp, [sp], #4)
 918:	e12fff1e 	bx	lr

0000091c <led_test>:
 91c:	e92d4800 	push	{fp, lr}
 920:	e28db004 	add	fp, sp, #4
 924:	e24dd008 	sub	sp, sp, #8
 928:	e3a03000 	mov	r3, #0
 92c:	e50b3008 	str	r3, [fp, #-8]
 930:	e59f2094 	ldr	r2, [pc, #148]	; 9cc <led_test+0xb0>
 934:	e59f3090 	ldr	r3, [pc, #144]	; 9cc <led_test+0xb0>
 938:	e5933000 	ldr	r3, [r3]
 93c:	e3c33c3f 	bic	r3, r3, #16128	; 0x3f00
 940:	e5823000 	str	r3, [r2]
 944:	e59f2080 	ldr	r2, [pc, #128]	; 9cc <led_test+0xb0>
 948:	e59f307c 	ldr	r3, [pc, #124]	; 9cc <led_test+0xb0>
 94c:	e5933000 	ldr	r3, [r3]
 950:	e3833c15 	orr	r3, r3, #5376	; 0x1500
 954:	e5823000 	str	r3, [r2]
 958:	e51b3008 	ldr	r3, [fp, #-8]
 95c:	e1e03003 	mvn	r3, r3
 960:	e50b300c 	str	r3, [fp, #-12]
 964:	e51b300c 	ldr	r3, [fp, #-12]
 968:	e2033007 	and	r3, r3, #7
 96c:	e50b300c 	str	r3, [fp, #-12]
 970:	e59f2058 	ldr	r2, [pc, #88]	; 9d0 <led_test+0xb4>
 974:	e59f3054 	ldr	r3, [pc, #84]	; 9d0 <led_test+0xb4>
 978:	e5933000 	ldr	r3, [r3]
 97c:	e3c33070 	bic	r3, r3, #112	; 0x70
 980:	e5823000 	str	r3, [r2]
 984:	e59f1044 	ldr	r1, [pc, #68]	; 9d0 <led_test+0xb4>
 988:	e59f3040 	ldr	r3, [pc, #64]	; 9d0 <led_test+0xb4>
 98c:	e5933000 	ldr	r3, [r3]
 990:	e51b200c 	ldr	r2, [fp, #-12]
 994:	e1a02202 	lsl	r2, r2, #4
 998:	e1833002 	orr	r3, r3, r2
 99c:	e5813000 	str	r3, [r1]
 9a0:	e59f002c 	ldr	r0, [pc, #44]	; 9d4 <led_test+0xb8>
 9a4:	ebffffce 	bl	8e4 <delay>
 9a8:	e51b3008 	ldr	r3, [fp, #-8]
 9ac:	e2833001 	add	r3, r3, #1
 9b0:	e50b3008 	str	r3, [fp, #-8]
 9b4:	e51b3008 	ldr	r3, [fp, #-8]
 9b8:	e3530008 	cmp	r3, #8
 9bc:	1affffe5 	bne	958 <led_test+0x3c>
 9c0:	e3a03000 	mov	r3, #0
 9c4:	e50b3008 	str	r3, [fp, #-8]
 9c8:	eaffffe2 	b	958 <led_test+0x3c>
 9cc:	56000050 			; <UNDEFINED> instruction: 0x56000050
 9d0:	56000054 			; <UNDEFINED> instruction: 0x56000054
 9d4:	000186a0 	andeq	r8, r1, r0, lsr #13

000009d8 <__aeabi_uidiv>:
 9d8:	e2512001 	subs	r2, r1, #1
 9dc:	012fff1e 	bxeq	lr
 9e0:	3a000036 	bcc	ac0 <__aeabi_uidiv+0xe8>
 9e4:	e1500001 	cmp	r0, r1
 9e8:	9a000022 	bls	a78 <__aeabi_uidiv+0xa0>
 9ec:	e1110002 	tst	r1, r2
 9f0:	0a000023 	beq	a84 <__aeabi_uidiv+0xac>
 9f4:	e311020e 	tst	r1, #-536870912	; 0xe0000000
 9f8:	01a01181 	lsleq	r1, r1, #3
 9fc:	03a03008 	moveq	r3, #8
 a00:	13a03001 	movne	r3, #1
 a04:	e3510201 	cmp	r1, #268435456	; 0x10000000
 a08:	31510000 	cmpcc	r1, r0
 a0c:	31a01201 	lslcc	r1, r1, #4
 a10:	31a03203 	lslcc	r3, r3, #4
 a14:	3afffffa 	bcc	a04 <__aeabi_uidiv+0x2c>
 a18:	e3510102 	cmp	r1, #-2147483648	; 0x80000000
 a1c:	31510000 	cmpcc	r1, r0
 a20:	31a01081 	lslcc	r1, r1, #1
 a24:	31a03083 	lslcc	r3, r3, #1
 a28:	3afffffa 	bcc	a18 <__aeabi_uidiv+0x40>
 a2c:	e3a02000 	mov	r2, #0
 a30:	e1500001 	cmp	r0, r1
 a34:	20400001 	subcs	r0, r0, r1
 a38:	21822003 	orrcs	r2, r2, r3
 a3c:	e15000a1 	cmp	r0, r1, lsr #1
 a40:	204000a1 	subcs	r0, r0, r1, lsr #1
 a44:	218220a3 	orrcs	r2, r2, r3, lsr #1
 a48:	e1500121 	cmp	r0, r1, lsr #2
 a4c:	20400121 	subcs	r0, r0, r1, lsr #2
 a50:	21822123 	orrcs	r2, r2, r3, lsr #2
 a54:	e15001a1 	cmp	r0, r1, lsr #3
 a58:	204001a1 	subcs	r0, r0, r1, lsr #3
 a5c:	218221a3 	orrcs	r2, r2, r3, lsr #3
 a60:	e3500000 	cmp	r0, #0
 a64:	11b03223 	lsrsne	r3, r3, #4
 a68:	11a01221 	lsrne	r1, r1, #4
 a6c:	1affffef 	bne	a30 <__aeabi_uidiv+0x58>
 a70:	e1a00002 	mov	r0, r2
 a74:	e12fff1e 	bx	lr
 a78:	03a00001 	moveq	r0, #1
 a7c:	13a00000 	movne	r0, #0
 a80:	e12fff1e 	bx	lr
 a84:	e3510801 	cmp	r1, #65536	; 0x10000
 a88:	21a01821 	lsrcs	r1, r1, #16
 a8c:	23a02010 	movcs	r2, #16
 a90:	33a02000 	movcc	r2, #0
 a94:	e3510c01 	cmp	r1, #256	; 0x100
 a98:	21a01421 	lsrcs	r1, r1, #8
 a9c:	22822008 	addcs	r2, r2, #8
 aa0:	e3510010 	cmp	r1, #16
 aa4:	21a01221 	lsrcs	r1, r1, #4
 aa8:	22822004 	addcs	r2, r2, #4
 aac:	e3510004 	cmp	r1, #4
 ab0:	82822003 	addhi	r2, r2, #3
 ab4:	908220a1 	addls	r2, r2, r1, lsr #1
 ab8:	e1a00230 	lsr	r0, r0, r2
 abc:	e12fff1e 	bx	lr
 ac0:	e3500000 	cmp	r0, #0
 ac4:	13e00000 	mvnne	r0, #0
 ac8:	ea000007 	b	aec <__aeabi_idiv0>

00000acc <__aeabi_uidivmod>:
 acc:	e3510000 	cmp	r1, #0
 ad0:	0afffffa 	beq	ac0 <__aeabi_uidiv+0xe8>
 ad4:	e92d4003 	push	{r0, r1, lr}
 ad8:	ebffffbe 	bl	9d8 <__aeabi_uidiv>
 adc:	e8bd4006 	pop	{r1, r2, lr}
 ae0:	e0030092 	mul	r3, r2, r0
 ae4:	e0411003 	sub	r1, r1, r3
 ae8:	e12fff1e 	bx	lr

00000aec <__aeabi_idiv0>:
 aec:	e12fff1e 	bx	lr
